GAS LISTING /tmp/ccUCgKZl.s 			page 1


   1              		.file	"userMain.cpp"
   2              		.option pic
   3              		.option norelax
   4              		.text
   5              	.Ltext0:
   6              		.section	.rodata.str1.8,"aMS",@progbits,1
   7              		.align	3
   8              	.LC0:
   9 0000 556E6573 		.string	"Unesite broj testa? [1-8]\n"
   9      69746520 
   9      62726F6A 
   9      20746573 
   9      74613F20 
  10 001b 00000000 		.align	3
  10      00
  11              	.LC1:
  12 0020 4E696A65 		.string	"Nije navedeno da je zadatak 4 implementiran\n"
  12      206E6176 
  12      6564656E 
  12      6F206461 
  12      206A6520 
  13 004d 000000   		.align	3
  14              	.LC2:
  15 0050 54455354 		.string	"TEST 1 (zadatak 2, niti C API i sinhrona promena konteksta)\n"
  15      20312028 
  15      7A616461 
  15      74616B20 
  15      322C206E 
  16 008d 000000   		.align	3
  17              	.LC3:
  18 0090 54455354 		.string	"TEST 2 (zadatak 2., niti CPP API i sinhrona promena konteksta)\n"
  18      20322028 
  18      7A616461 
  18      74616B20 
  18      322E2C20 
  19              		.align	3
  20              	.LC4:
  21 00d0 54455354 		.string	"TEST 3 (zadatak 3., kompletan C API sa semaforima, sinhrona promena konteksta)\n"
  21      20332028 
  21      7A616461 
  21      74616B20 
  21      332E2C20 
  22              		.align	3
  23              	.LC5:
  24 0120 54455354 		.string	"TEST 4 (zadatak 3., kompletan CPP API sa semaforima, sinhrona promena konteksta)\n"
  24      20342028 
  24      7A616461 
  24      74616B20 
  24      332E2C20 
  25 0172 00000000 		.align	3
  25      0000
  26              	.LC6:
  27 0178 54657374 		.string	"Test se nije uspesno zavrsio\n"
  27      20736520 
  27      6E696A65 
  27      20757370 
  27      65736E6F 
GAS LISTING /tmp/ccUCgKZl.s 			page 2


  28 0196 0000     		.align	3
  29              	.LC7:
  30 0198 54455354 		.string	"TEST 7 (zadatak 2., testiranje da li se korisnicki kod izvrsava u korisnickom rezimu)\n"
  30      20372028 
  30      7A616461 
  30      74616B20 
  30      322E2C20 
  31 01ef 00       		.align	3
  32              	.LC8:
  33 01f0 54455354 		.string	"TEST 8 (modifikacija kompletna)\n"
  33      20382028 
  33      6D6F6469 
  33      66696B61 
  33      63696A61 
  34 0211 00000000 		.align	3
  34      000000
  35              	.LC9:
  36 0218 4E697374 		.string	"Niste uneli odgovarajuci broj za test\n"
  36      6520756E 
  36      656C6920 
  36      6F64676F 
  36      76617261 
  37              		.text
  38              		.align	2
  39              		.globl	_Z8userMainv
  41              	_Z8userMainv:
  42              	.LFB28:
  43              		.file 1 "test/userMain.cpp"
   1:test/userMain.cpp **** #include "printing.hpp"
   2:test/userMain.cpp **** 
   3:test/userMain.cpp **** #define LEVEL_1_IMPLEMENTED 1
   4:test/userMain.cpp **** #define LEVEL_2_IMPLEMENTED 1
   5:test/userMain.cpp **** #define LEVEL_3_IMPLEMENTED 1
   6:test/userMain.cpp **** #define LEVEL_4_IMPLEMENTED 0
   7:test/userMain.cpp **** 
   8:test/userMain.cpp **** #if LEVEL_2_IMPLEMENTED == 1
   9:test/userMain.cpp **** // TEST 1 (zadatak 2, niti C API i sinhrona promena konteksta)
  10:test/userMain.cpp **** #include "../test/Threads_C_API_test.hpp"
  11:test/userMain.cpp **** // TEST 2 (zadatak 2., niti CPP API i sinhrona promena konteksta)
  12:test/userMain.cpp **** #include "../test/Threads_CPP_API_test.hpp"
  13:test/userMain.cpp **** // TEST 7 (zadatak 2., testiranje da li se korisnicki kod izvrsava u korisnickom rezimu)
  14:test/userMain.cpp **** #include "../test/System_Mode_test.hpp"
  15:test/userMain.cpp **** // TEST 8 (modifikacija)
  16:test/userMain.cpp **** #include "../test/mod.hpp"
  17:test/userMain.cpp **** #endif
  18:test/userMain.cpp **** 
  19:test/userMain.cpp **** #if LEVEL_3_IMPLEMENTED == 1
  20:test/userMain.cpp **** // TEST 3 (zadatak 3., kompletan C API sa semaforima, sinhrona promena konteksta)
  21:test/userMain.cpp **** #include "../test/ConsumerProducer_C_API_test.hpp"
  22:test/userMain.cpp **** // TEST 4 (zadatak 3., kompletan CPP API sa semaforima, sinhrona promena konteksta)
  23:test/userMain.cpp **** #include "../test/ConsumerProducer_CPP_Sync_API_test.hpp"
  24:test/userMain.cpp **** #endif
  25:test/userMain.cpp **** 
  26:test/userMain.cpp **** #if LEVEL_4_IMPLEMENTED == 1
  27:test/userMain.cpp **** // TEST 5 (zadatak 4., thread_sleep test C API)
  28:test/userMain.cpp **** #include "../test/ThreadSleep_C_API_test.hpp"
  29:test/userMain.cpp **** // TEST 6 (zadatak 4. CPP API i asinhrona promena konteksta)
GAS LISTING /tmp/ccUCgKZl.s 			page 3


  30:test/userMain.cpp **** #include "../test/ConsumerProducer_CPP_API_test.hpp"
  31:test/userMain.cpp **** #include "System_Mode_test.hpp"
  32:test/userMain.cpp **** 
  33:test/userMain.cpp **** #endif
  34:test/userMain.cpp **** 
  35:test/userMain.cpp **** void userMain() {
  44              		.loc 1 35 17
  45              		.cfi_startproc
  46 0000 130101FE 		addi	sp,sp,-32
  47              		.cfi_def_cfa_offset 32
  48 0004 233C1100 		sd	ra,24(sp)
  49 0008 23388100 		sd	s0,16(sp)
  50 000c 23349100 		sd	s1,8(sp)
  51 0010 23302101 		sd	s2,0(sp)
  52              		.cfi_offset 1, -8
  53              		.cfi_offset 8, -16
  54              		.cfi_offset 9, -24
  55              		.cfi_offset 18, -32
  56 0014 13040102 		addi	s0,sp,32
  57              		.cfi_def_cfa 8, 0
  36:test/userMain.cpp ****     printString("Unesite broj testa? [1-8]\n");
  58              		.loc 1 36 5
  59              		.loc 1 36 16 is_stmt 0
  60 0018 17050000 		lla	a0,.LC0
  60      13050500 
  61 0020 97000000 		call	_Z11printStringPKc@plt
  61      E7800000 
  62              	.LVL0:
  37:test/userMain.cpp ****     int test = getc() - '0';
  63              		.loc 1 37 5 is_stmt 1
  64              		.loc 1 37 20 is_stmt 0
  65 0028 97000000 		call	_Z4getcv@plt
  65      E7800000 
  66              	.LVL1:
  67 0030 13090500 		mv	s2,a0
  68              		.loc 1 37 25
  69 0034 9B0405FD 		addiw	s1,a0,-48
  70              	.LVL2:
  38:test/userMain.cpp ****     getc(); // Enter posle broja
  71              		.loc 1 38 5 is_stmt 1
  72              		.loc 1 38 9 is_stmt 0
  73 0038 97000000 		call	_Z4getcv@plt
  73      E7800000 
  74              	.LVL3:
  39:test/userMain.cpp **** 
  40:test/userMain.cpp ****     if ((test >= 1 && test <= 2) || test == 7 || test == 8) {
  75              		.loc 1 40 5 is_stmt 1
  41:test/userMain.cpp ****         if (LEVEL_2_IMPLEMENTED == 0) {
  42:test/userMain.cpp ****             printString("Nije navedeno da je zadatak 2 implementiran\n");
  43:test/userMain.cpp ****             return;
  44:test/userMain.cpp ****         }
  45:test/userMain.cpp ****     }
  46:test/userMain.cpp **** 
  47:test/userMain.cpp ****     if (test >= 3 && test <= 4) {
  76              		.loc 1 47 5
  48:test/userMain.cpp ****         if (LEVEL_3_IMPLEMENTED == 0) {
  49:test/userMain.cpp ****             printString("Nije navedeno da je zadatak 3 implementiran\n");
GAS LISTING /tmp/ccUCgKZl.s 			page 4


  50:test/userMain.cpp ****             return;
  51:test/userMain.cpp ****         }
  52:test/userMain.cpp ****     }
  53:test/userMain.cpp **** 
  54:test/userMain.cpp ****     if (test >= 5 && test <= 6) {
  77              		.loc 1 54 5
  78              		.loc 1 54 19 is_stmt 0
  79 0040 1B09B9FC 		addiw	s2,s2,-53
  80              		.loc 1 54 5
  81 0044 93071000 		li	a5,1
  82 0048 63F42703 		bleu	s2,a5,.L13
  55:test/userMain.cpp ****         if (LEVEL_4_IMPLEMENTED == 0) {
  56:test/userMain.cpp ****             printString("Nije navedeno da je zadatak 4 implementiran\n");
  57:test/userMain.cpp ****             return;
  58:test/userMain.cpp ****         }
  59:test/userMain.cpp ****     }
  60:test/userMain.cpp **** 
  61:test/userMain.cpp ****     switch (test) {
  83              		.loc 1 61 5 is_stmt 1
  84 004c 93078000 		li	a5,8
  85 0050 63E09710 		bgtu	s1,a5,.L4
  86 0054 93942400 		slli	s1,s1,2
  87 0058 17070000 		lla	a4,.L6
  87      13070700 
  88 0060 B384E400 		add	s1,s1,a4
  89 0064 83A70400 		lw	a5,0(s1)
  90 0068 B387E700 		add	a5,a5,a4
  91 006c 67800700 		jr	a5
  92              		.section	.rodata
  93              		.align	2
  94              		.align	2
  95              	.L6:
  96 0000 00000000 		.word	.L4-.L6
  97 0004 00000000 		.word	.L11-.L6
  98 0008 00000000 		.word	.L10-.L6
  99 000c 00000000 		.word	.L9-.L6
 100 0010 00000000 		.word	.L8-.L6
 101 0014 00000000 		.word	.L1-.L6
 102 0018 00000000 		.word	.L1-.L6
 103 001c 00000000 		.word	.L7-.L6
 104 0020 00000000 		.word	.L5-.L6
 105              		.text
 106              	.L13:
  55:test/userMain.cpp ****         if (LEVEL_4_IMPLEMENTED == 0) {
 107              		.loc 1 55 9
  56:test/userMain.cpp ****             return;
 108              		.loc 1 56 13
  56:test/userMain.cpp ****             return;
 109              		.loc 1 56 24 is_stmt 0
 110 0070 17050000 		lla	a0,.LC1
 110      13050500 
 111 0078 97000000 		call	_Z11printStringPKc@plt
 111      E7800000 
 112              	.LVL4:
  57:test/userMain.cpp ****         }
 113              		.loc 1 57 13 is_stmt 1
 114              	.L1:
GAS LISTING /tmp/ccUCgKZl.s 			page 5


  62:test/userMain.cpp ****         case 1:
  63:test/userMain.cpp **** #if LEVEL_2_IMPLEMENTED == 1
  64:test/userMain.cpp ****             Threads_C_API_test();
  65:test/userMain.cpp ****             printString("TEST 1 (zadatak 2, niti C API i sinhrona promena konteksta)\n");
  66:test/userMain.cpp **** #endif
  67:test/userMain.cpp ****             break;
  68:test/userMain.cpp ****         case 2:
  69:test/userMain.cpp **** #if LEVEL_2_IMPLEMENTED == 1
  70:test/userMain.cpp ****             Threads_CPP_API_test();
  71:test/userMain.cpp ****             printString("TEST 2 (zadatak 2., niti CPP API i sinhrona promena konteksta)\n");
  72:test/userMain.cpp **** #endif
  73:test/userMain.cpp ****             break;
  74:test/userMain.cpp ****         case 3:
  75:test/userMain.cpp **** #if LEVEL_3_IMPLEMENTED == 1
  76:test/userMain.cpp ****             producerConsumer_C_API();
  77:test/userMain.cpp ****             printString("TEST 3 (zadatak 3., kompletan C API sa semaforima, sinhrona promena kontek
  78:test/userMain.cpp **** #endif
  79:test/userMain.cpp ****             break;
  80:test/userMain.cpp ****         case 4:
  81:test/userMain.cpp **** #if LEVEL_3_IMPLEMENTED == 1
  82:test/userMain.cpp ****             producerConsumer_CPP_Sync_API();
  83:test/userMain.cpp ****             printString("TEST 4 (zadatak 3., kompletan CPP API sa semaforima, sinhrona promena kont
  84:test/userMain.cpp **** #endif
  85:test/userMain.cpp ****         case 5:
  86:test/userMain.cpp **** #if LEVEL_4_IMPLEMENTED == 1
  87:test/userMain.cpp ****             testSleeping();
  88:test/userMain.cpp ****             printString("TEST 5 (zadatak 4., thread_sleep test C API)\n");
  89:test/userMain.cpp **** #endif
  90:test/userMain.cpp ****             break;
  91:test/userMain.cpp ****         case 6:
  92:test/userMain.cpp **** #if LEVEL_4_IMPLEMENTED == 1
  93:test/userMain.cpp ****             testConsumerProducer();
  94:test/userMain.cpp ****             printString("TEST 6 (zadatak 4. CPP API i asinhrona promena konteksta)\n");
  95:test/userMain.cpp **** #endif
  96:test/userMain.cpp ****             break;
  97:test/userMain.cpp ****         case 7:
  98:test/userMain.cpp **** #if LEVEL_2_IMPLEMENTED == 1
  99:test/userMain.cpp ****             System_Mode_test();
 100:test/userMain.cpp ****             printString("Test se nije uspesno zavrsio\n");
 101:test/userMain.cpp ****             printString("TEST 7 (zadatak 2., testiranje da li se korisnicki kod izvrsava u korisnic
 102:test/userMain.cpp **** #endif
 103:test/userMain.cpp ****             break;
 104:test/userMain.cpp ****         case 8:
 105:test/userMain.cpp **** #if LEVEL_2_IMPLEMENTED == 1
 106:test/userMain.cpp ****             modFunc();
 107:test/userMain.cpp ****             printString("TEST 8 (modifikacija kompletna)\n");
 108:test/userMain.cpp **** #endif
 109:test/userMain.cpp ****             break;
 110:test/userMain.cpp ****         default:
 111:test/userMain.cpp ****             printString("Niste uneli odgovarajuci broj za test\n");
 112:test/userMain.cpp ****     }
 113:test/userMain.cpp **** }...
 115              		.loc 1 113 1 is_stmt 0
 116 0080 83308101 		ld	ra,24(sp)
 117              		.cfi_remember_state
 118              		.cfi_restore 1
 119 0084 03340101 		ld	s0,16(sp)
GAS LISTING /tmp/ccUCgKZl.s 			page 6


 120              		.cfi_restore 8
 121              		.cfi_def_cfa 2, 32
 122 0088 83348100 		ld	s1,8(sp)
 123              		.cfi_restore 9
 124 008c 03390100 		ld	s2,0(sp)
 125              		.cfi_restore 18
 126 0090 13010102 		addi	sp,sp,32
 127              		.cfi_def_cfa_offset 0
 128 0094 67800000 		jr	ra
 129              	.L11:
 130              		.cfi_restore_state
  62:test/userMain.cpp ****         case 1:
 131              		.loc 1 62 9 is_stmt 1
  64:test/userMain.cpp ****             Threads_C_API_test();
 132              		.loc 1 64 13
  64:test/userMain.cpp ****             Threads_C_API_test();
 133              		.loc 1 64 31 is_stmt 0
 134 0098 97000000 		call	_Z18Threads_C_API_testv@plt
 134      E7800000 
 135              	.LVL5:
  65:test/userMain.cpp ****             printString("TEST 1 (zadatak 2, niti C API i sinhrona promena konteksta)\n");
 136              		.loc 1 65 13 is_stmt 1
  65:test/userMain.cpp ****             printString("TEST 1 (zadatak 2, niti C API i sinhrona promena konteksta)\n");
 137              		.loc 1 65 24 is_stmt 0
 138 00a0 17050000 		lla	a0,.LC2
 138      13050500 
 139 00a8 97000000 		call	_Z11printStringPKc@plt
 139      E7800000 
 140              	.LVL6:
  67:test/userMain.cpp ****             break;
 141              		.loc 1 67 13 is_stmt 1
 142 00b0 6FF01FFD 		j	.L1
 143              	.L10:
  68:test/userMain.cpp ****         case 2:
 144              		.loc 1 68 9
  70:test/userMain.cpp ****             Threads_CPP_API_test();
 145              		.loc 1 70 13
  70:test/userMain.cpp ****             Threads_CPP_API_test();
 146              		.loc 1 70 33 is_stmt 0
 147 00b4 97000000 		call	_Z20Threads_CPP_API_testv@plt
 147      E7800000 
 148              	.LVL7:
  71:test/userMain.cpp ****             printString("TEST 2 (zadatak 2., niti CPP API i sinhrona promena konteksta)\n");
 149              		.loc 1 71 13 is_stmt 1
  71:test/userMain.cpp ****             printString("TEST 2 (zadatak 2., niti CPP API i sinhrona promena konteksta)\n");
 150              		.loc 1 71 24 is_stmt 0
 151 00bc 17050000 		lla	a0,.LC3
 151      13050500 
 152 00c4 97000000 		call	_Z11printStringPKc@plt
 152      E7800000 
 153              	.LVL8:
  73:test/userMain.cpp ****             break;
 154              		.loc 1 73 13 is_stmt 1
 155 00cc 6FF05FFB 		j	.L1
 156              	.L9:
  74:test/userMain.cpp ****         case 3:
 157              		.loc 1 74 9
GAS LISTING /tmp/ccUCgKZl.s 			page 7


  76:test/userMain.cpp ****             producerConsumer_C_API();
 158              		.loc 1 76 13
  76:test/userMain.cpp ****             producerConsumer_C_API();
 159              		.loc 1 76 35 is_stmt 0
 160 00d0 97000000 		call	_Z22producerConsumer_C_APIv@plt
 160      E7800000 
 161              	.LVL9:
  77:test/userMain.cpp ****             printString("TEST 3 (zadatak 3., kompletan C API sa semaforima, sinhrona promena kontek
 162              		.loc 1 77 13 is_stmt 1
  77:test/userMain.cpp ****             printString("TEST 3 (zadatak 3., kompletan C API sa semaforima, sinhrona promena kontek
 163              		.loc 1 77 24 is_stmt 0
 164 00d8 17050000 		lla	a0,.LC4
 164      13050500 
 165 00e0 97000000 		call	_Z11printStringPKc@plt
 165      E7800000 
 166              	.LVL10:
  79:test/userMain.cpp ****             break;
 167              		.loc 1 79 13 is_stmt 1
 168 00e8 6FF09FF9 		j	.L1
 169              	.L8:
  80:test/userMain.cpp ****         case 4:
 170              		.loc 1 80 9
  82:test/userMain.cpp ****             producerConsumer_CPP_Sync_API();
 171              		.loc 1 82 13
  82:test/userMain.cpp ****             producerConsumer_CPP_Sync_API();
 172              		.loc 1 82 42 is_stmt 0
 173 00ec 97000000 		call	_Z29producerConsumer_CPP_Sync_APIv@plt
 173      E7800000 
 174              	.LVL11:
  83:test/userMain.cpp ****             printString("TEST 4 (zadatak 3., kompletan CPP API sa semaforima, sinhrona promena kont
 175              		.loc 1 83 13 is_stmt 1
  83:test/userMain.cpp ****             printString("TEST 4 (zadatak 3., kompletan CPP API sa semaforima, sinhrona promena kont
 176              		.loc 1 83 24 is_stmt 0
 177 00f4 17050000 		lla	a0,.LC5
 177      13050500 
 178 00fc 97000000 		call	_Z11printStringPKc@plt
 178      E7800000 
 179              	.LVL12:
 180 0104 6FF0DFF7 		j	.L1
 181              	.L7:
  97:test/userMain.cpp ****         case 7:
 182              		.loc 1 97 9 is_stmt 1
  99:test/userMain.cpp ****             System_Mode_test();
 183              		.loc 1 99 13
  99:test/userMain.cpp ****             System_Mode_test();
 184              		.loc 1 99 29 is_stmt 0
 185 0108 97000000 		call	_Z16System_Mode_testv@plt
 185      E7800000 
 186              	.LVL13:
 100:test/userMain.cpp ****             printString("Test se nije uspesno zavrsio\n");
 187              		.loc 1 100 13 is_stmt 1
 100:test/userMain.cpp ****             printString("Test se nije uspesno zavrsio\n");
 188              		.loc 1 100 24 is_stmt 0
 189 0110 17050000 		lla	a0,.LC6
 189      13050500 
 190 0118 97000000 		call	_Z11printStringPKc@plt
 190      E7800000 
GAS LISTING /tmp/ccUCgKZl.s 			page 8


 191              	.LVL14:
 101:test/userMain.cpp ****             printString("TEST 7 (zadatak 2., testiranje da li se korisnicki kod izvrsava u korisnic
 192              		.loc 1 101 13 is_stmt 1
 101:test/userMain.cpp ****             printString("TEST 7 (zadatak 2., testiranje da li se korisnicki kod izvrsava u korisnic
 193              		.loc 1 101 24 is_stmt 0
 194 0120 17050000 		lla	a0,.LC7
 194      13050500 
 195 0128 97000000 		call	_Z11printStringPKc@plt
 195      E7800000 
 196              	.LVL15:
 103:test/userMain.cpp ****             break;
 197              		.loc 1 103 13 is_stmt 1
 198 0130 6FF01FF5 		j	.L1
 199              	.L5:
 104:test/userMain.cpp ****         case 8:
 200              		.loc 1 104 9
 106:test/userMain.cpp ****             modFunc();
 201              		.loc 1 106 13
 106:test/userMain.cpp ****             modFunc();
 202              		.loc 1 106 20 is_stmt 0
 203 0134 97000000 		call	_Z7modFuncv@plt
 203      E7800000 
 204              	.LVL16:
 107:test/userMain.cpp ****             printString("TEST 8 (modifikacija kompletna)\n");
 205              		.loc 1 107 13 is_stmt 1
 107:test/userMain.cpp ****             printString("TEST 8 (modifikacija kompletna)\n");
 206              		.loc 1 107 24 is_stmt 0
 207 013c 17050000 		lla	a0,.LC8
 207      13050500 
 208 0144 97000000 		call	_Z11printStringPKc@plt
 208      E7800000 
 209              	.LVL17:
 109:test/userMain.cpp ****             break;
 210              		.loc 1 109 13 is_stmt 1
 211 014c 6FF05FF3 		j	.L1
 212              	.L4:
 110:test/userMain.cpp ****         default:
 213              		.loc 1 110 9
 111:test/userMain.cpp ****             printString("Niste uneli odgovarajuci broj za test\n");
 214              		.loc 1 111 13
 111:test/userMain.cpp ****             printString("Niste uneli odgovarajuci broj za test\n");
 215              		.loc 1 111 24 is_stmt 0
 216 0150 17050000 		lla	a0,.LC9
 216      13050500 
 217 0158 97000000 		call	_Z11printStringPKc@plt
 217      E7800000 
 218              	.LVL18:
 219 0160 6FF01FF2 		j	.L1
 220              		.cfi_endproc
 221              	.LFE28:
 223              	.Letext0:
 224              		.file 2 "test/../h/../lib/hw.h"
 225              		.file 3 "test/printing.hpp"
 226              		.file 4 "test/../h/syscall_c.hpp"
 227              		.file 5 "test/../test/Threads_C_API_test.hpp"
 228              		.file 6 "test/../test/Threads_CPP_API_test.hpp"
 229              		.file 7 "test/../test/ConsumerProducer_C_API_test.hpp"
GAS LISTING /tmp/ccUCgKZl.s 			page 9


 230              		.file 8 "test/../test/ConsumerProducer_CPP_Sync_API_test.hpp"
 231              		.file 9 "test/../test/System_Mode_test.hpp"
 232              		.file 10 "test/../test/mod.hpp"
GAS LISTING /tmp/ccUCgKZl.s 			page 10


DEFINED SYMBOLS
                            *ABS*:0000000000000000 userMain.cpp
     /tmp/ccUCgKZl.s:41     .text:0000000000000000 _Z8userMainv
     /tmp/ccUCgKZl.s:45     .text:0000000000000000 .L0 
     /tmp/ccUCgKZl.s:46     .text:0000000000000000 .L0 
     /tmp/ccUCgKZl.s:47     .text:0000000000000004 .L0 
     /tmp/ccUCgKZl.s:52     .text:0000000000000014 .L0 
     /tmp/ccUCgKZl.s:53     .text:0000000000000014 .L0 
     /tmp/ccUCgKZl.s:54     .text:0000000000000014 .L0 
     /tmp/ccUCgKZl.s:55     .text:0000000000000014 .L0 
     /tmp/ccUCgKZl.s:57     .text:0000000000000018 .L0 
     /tmp/ccUCgKZl.s:59     .text:0000000000000018 .L0 
     /tmp/ccUCgKZl.s:60     .text:0000000000000018 .L0 
     /tmp/ccUCgKZl.s:64     .text:0000000000000028 .L0 
     /tmp/ccUCgKZl.s:65     .text:0000000000000028 .L0 
     /tmp/ccUCgKZl.s:69     .text:0000000000000034 .L0 
     /tmp/ccUCgKZl.s:72     .text:0000000000000038 .L0 
     /tmp/ccUCgKZl.s:73     .text:0000000000000038 .L0 
     /tmp/ccUCgKZl.s:76     .text:0000000000000040 .L0 
     /tmp/ccUCgKZl.s:77     .text:0000000000000040 .L0 
     /tmp/ccUCgKZl.s:78     .text:0000000000000040 .L0 
     /tmp/ccUCgKZl.s:79     .text:0000000000000040 .L0 
     /tmp/ccUCgKZl.s:81     .text:0000000000000044 .L0 
     /tmp/ccUCgKZl.s:84     .text:000000000000004c .L0 
     /tmp/ccUCgKZl.s:108    .text:0000000000000070 .L0 
     /tmp/ccUCgKZl.s:109    .text:0000000000000070 .L0 
     /tmp/ccUCgKZl.s:110    .text:0000000000000070 .L0 
     /tmp/ccUCgKZl.s:115    .text:0000000000000080 .L0 
     /tmp/ccUCgKZl.s:116    .text:0000000000000080 .L0 
     /tmp/ccUCgKZl.s:117    .text:0000000000000084 .L0 
     /tmp/ccUCgKZl.s:118    .text:0000000000000084 .L0 
     /tmp/ccUCgKZl.s:120    .text:0000000000000088 .L0 
     /tmp/ccUCgKZl.s:121    .text:0000000000000088 .L0 
     /tmp/ccUCgKZl.s:123    .text:000000000000008c .L0 
     /tmp/ccUCgKZl.s:125    .text:0000000000000090 .L0 
     /tmp/ccUCgKZl.s:127    .text:0000000000000094 .L0 
     /tmp/ccUCgKZl.s:130    .text:0000000000000098 .L0 
     /tmp/ccUCgKZl.s:132    .text:0000000000000098 .L0 
     /tmp/ccUCgKZl.s:133    .text:0000000000000098 .L0 
     /tmp/ccUCgKZl.s:134    .text:0000000000000098 .L0 
     /tmp/ccUCgKZl.s:137    .text:00000000000000a0 .L0 
     /tmp/ccUCgKZl.s:138    .text:00000000000000a0 .L0 
     /tmp/ccUCgKZl.s:142    .text:00000000000000b0 .L0 
     /tmp/ccUCgKZl.s:145    .text:00000000000000b4 .L0 
     /tmp/ccUCgKZl.s:146    .text:00000000000000b4 .L0 
     /tmp/ccUCgKZl.s:147    .text:00000000000000b4 .L0 
     /tmp/ccUCgKZl.s:150    .text:00000000000000bc .L0 
     /tmp/ccUCgKZl.s:151    .text:00000000000000bc .L0 
     /tmp/ccUCgKZl.s:155    .text:00000000000000cc .L0 
     /tmp/ccUCgKZl.s:158    .text:00000000000000d0 .L0 
     /tmp/ccUCgKZl.s:159    .text:00000000000000d0 .L0 
     /tmp/ccUCgKZl.s:160    .text:00000000000000d0 .L0 
     /tmp/ccUCgKZl.s:163    .text:00000000000000d8 .L0 
     /tmp/ccUCgKZl.s:164    .text:00000000000000d8 .L0 
     /tmp/ccUCgKZl.s:168    .text:00000000000000e8 .L0 
     /tmp/ccUCgKZl.s:171    .text:00000000000000ec .L0 
     /tmp/ccUCgKZl.s:172    .text:00000000000000ec .L0 
GAS LISTING /tmp/ccUCgKZl.s 			page 11


     /tmp/ccUCgKZl.s:173    .text:00000000000000ec .L0 
     /tmp/ccUCgKZl.s:176    .text:00000000000000f4 .L0 
     /tmp/ccUCgKZl.s:177    .text:00000000000000f4 .L0 
     /tmp/ccUCgKZl.s:183    .text:0000000000000108 .L0 
     /tmp/ccUCgKZl.s:184    .text:0000000000000108 .L0 
     /tmp/ccUCgKZl.s:185    .text:0000000000000108 .L0 
     /tmp/ccUCgKZl.s:188    .text:0000000000000110 .L0 
     /tmp/ccUCgKZl.s:189    .text:0000000000000110 .L0 
     /tmp/ccUCgKZl.s:193    .text:0000000000000120 .L0 
     /tmp/ccUCgKZl.s:194    .text:0000000000000120 .L0 
     /tmp/ccUCgKZl.s:198    .text:0000000000000130 .L0 
     /tmp/ccUCgKZl.s:201    .text:0000000000000134 .L0 
     /tmp/ccUCgKZl.s:202    .text:0000000000000134 .L0 
     /tmp/ccUCgKZl.s:203    .text:0000000000000134 .L0 
     /tmp/ccUCgKZl.s:206    .text:000000000000013c .L0 
     /tmp/ccUCgKZl.s:207    .text:000000000000013c .L0 
     /tmp/ccUCgKZl.s:211    .text:000000000000014c .L0 
     /tmp/ccUCgKZl.s:214    .text:0000000000000150 .L0 
     /tmp/ccUCgKZl.s:215    .text:0000000000000150 .L0 
     /tmp/ccUCgKZl.s:216    .text:0000000000000150 .L0 
     /tmp/ccUCgKZl.s:220    .text:0000000000000164 .L0 
     /tmp/ccUCgKZl.s:233    .text:0000000000000164 .L0 
     /tmp/ccUCgKZl.s:8      .rodata.str1.8:0000000000000000 .LC0
     /tmp/ccUCgKZl.s:60     .text:0000000000000018 .L0 
     /tmp/ccUCgKZl.s:95     .rodata:0000000000000000 .L6
     /tmp/ccUCgKZl.s:87     .text:0000000000000058 .L0 
     /tmp/ccUCgKZl.s:11     .rodata.str1.8:0000000000000020 .LC1
     /tmp/ccUCgKZl.s:110    .text:0000000000000070 .L0 
     /tmp/ccUCgKZl.s:14     .rodata.str1.8:0000000000000050 .LC2
     /tmp/ccUCgKZl.s:138    .text:00000000000000a0 .L0 
     /tmp/ccUCgKZl.s:17     .rodata.str1.8:0000000000000090 .LC3
     /tmp/ccUCgKZl.s:151    .text:00000000000000bc .L0 
     /tmp/ccUCgKZl.s:20     .rodata.str1.8:00000000000000d0 .LC4
     /tmp/ccUCgKZl.s:164    .text:00000000000000d8 .L0 
     /tmp/ccUCgKZl.s:23     .rodata.str1.8:0000000000000120 .LC5
     /tmp/ccUCgKZl.s:177    .text:00000000000000f4 .L0 
     /tmp/ccUCgKZl.s:26     .rodata.str1.8:0000000000000178 .LC6
     /tmp/ccUCgKZl.s:189    .text:0000000000000110 .L0 
     /tmp/ccUCgKZl.s:29     .rodata.str1.8:0000000000000198 .LC7
     /tmp/ccUCgKZl.s:194    .text:0000000000000120 .L0 
     /tmp/ccUCgKZl.s:32     .rodata.str1.8:00000000000001f0 .LC8
     /tmp/ccUCgKZl.s:207    .text:000000000000013c .L0 
     /tmp/ccUCgKZl.s:35     .rodata.str1.8:0000000000000218 .LC9
     /tmp/ccUCgKZl.s:216    .text:0000000000000150 .L0 
     /tmp/ccUCgKZl.s:106    .text:0000000000000070 .L13
     /tmp/ccUCgKZl.s:212    .text:0000000000000150 .L4
     /tmp/ccUCgKZl.s:114    .text:0000000000000080 .L1
     /tmp/ccUCgKZl.s:129    .text:0000000000000098 .L11
     /tmp/ccUCgKZl.s:143    .text:00000000000000b4 .L10
     /tmp/ccUCgKZl.s:156    .text:00000000000000d0 .L9
     /tmp/ccUCgKZl.s:169    .text:00000000000000ec .L8
     /tmp/ccUCgKZl.s:181    .text:0000000000000108 .L7
     /tmp/ccUCgKZl.s:199    .text:0000000000000134 .L5
     /tmp/ccUCgKZl.s:565    .debug_abbrev:0000000000000000 .Ldebug_abbrev0
     /tmp/ccUCgKZl.s:894    .debug_str:0000000000000249 .LASF35
     /tmp/ccUCgKZl.s:836    .debug_str:0000000000000046 .LASF36
     /tmp/ccUCgKZl.s:856    .debug_str:00000000000000f2 .LASF37
GAS LISTING /tmp/ccUCgKZl.s 			page 12


     /tmp/ccUCgKZl.s:5      .text:0000000000000000 .Ltext0
     /tmp/ccUCgKZl.s:223    .text:0000000000000164 .Letext0
     /tmp/ccUCgKZl.s:822    .debug_line:0000000000000000 .Ldebug_line0
     /tmp/ccUCgKZl.s:870    .debug_str:000000000000017c .LASF0
     /tmp/ccUCgKZl.s:874    .debug_str:00000000000001a0 .LASF1
     /tmp/ccUCgKZl.s:866    .debug_str:000000000000015b .LASF2
     /tmp/ccUCgKZl.s:854    .debug_str:00000000000000eb .LASF4
     /tmp/ccUCgKZl.s:890    .debug_str:000000000000022f .LASF3
     /tmp/ccUCgKZl.s:832    .debug_str:000000000000002f .LASF5
     /tmp/ccUCgKZl.s:876    .debug_str:00000000000001b3 .LASF6
     /tmp/ccUCgKZl.s:868    .debug_str:0000000000000169 .LASF7
     /tmp/ccUCgKZl.s:898    .debug_str:000000000000031c .LASF8
     /tmp/ccUCgKZl.s:852    .debug_str:00000000000000dd .LASF9
     /tmp/ccUCgKZl.s:882    .debug_str:00000000000001e7 .LASF10
     /tmp/ccUCgKZl.s:896    .debug_str:000000000000030d .LASF11
     /tmp/ccUCgKZl.s:834    .debug_str:0000000000000036 .LASF12
     /tmp/ccUCgKZl.s:824    .debug_str:0000000000000000 .LASF13
     /tmp/ccUCgKZl.s:838    .debug_str:0000000000000058 .LASF14
     /tmp/ccUCgKZl.s:888    .debug_str:0000000000000219 .LASF15
     /tmp/ccUCgKZl.s:840    .debug_str:0000000000000064 .LASF16
     /tmp/ccUCgKZl.s:848    .debug_str:00000000000000be .LASF17
     /tmp/ccUCgKZl.s:844    .debug_str:0000000000000092 .LASF38
     /tmp/ccUCgKZl.s:860    .debug_str:000000000000011c .LASF39
     /tmp/ccUCgKZl.s:42     .text:0000000000000000 .LFB28
     /tmp/ccUCgKZl.s:221    .text:0000000000000164 .LFE28
     /tmp/ccUCgKZl.s:884    .debug_str:00000000000001f6 .LASF18
     /tmp/ccUCgKZl.s:800    .debug_loc:0000000000000000 .LLST0
     /tmp/ccUCgKZl.s:62     .text:0000000000000028 .LVL0
     /tmp/ccUCgKZl.s:66     .text:0000000000000030 .LVL1
     /tmp/ccUCgKZl.s:74     .text:0000000000000040 .LVL3
     /tmp/ccUCgKZl.s:112    .text:0000000000000080 .LVL4
     /tmp/ccUCgKZl.s:135    .text:00000000000000a0 .LVL5
     /tmp/ccUCgKZl.s:140    .text:00000000000000b0 .LVL6
     /tmp/ccUCgKZl.s:148    .text:00000000000000bc .LVL7
     /tmp/ccUCgKZl.s:153    .text:00000000000000cc .LVL8
     /tmp/ccUCgKZl.s:161    .text:00000000000000d8 .LVL9
     /tmp/ccUCgKZl.s:166    .text:00000000000000e8 .LVL10
     /tmp/ccUCgKZl.s:174    .text:00000000000000f4 .LVL11
     /tmp/ccUCgKZl.s:179    .text:0000000000000104 .LVL12
     /tmp/ccUCgKZl.s:186    .text:0000000000000110 .LVL13
     /tmp/ccUCgKZl.s:191    .text:0000000000000120 .LVL14
     /tmp/ccUCgKZl.s:196    .text:0000000000000130 .LVL15
     /tmp/ccUCgKZl.s:204    .text:000000000000013c .LVL16
     /tmp/ccUCgKZl.s:209    .text:000000000000014c .LVL17
     /tmp/ccUCgKZl.s:218    .text:0000000000000160 .LVL18
     /tmp/ccUCgKZl.s:902    .debug_str:000000000000033f .LASF19
     /tmp/ccUCgKZl.s:858    .debug_str:0000000000000110 .LASF21
     /tmp/ccUCgKZl.s:830    .debug_str:0000000000000026 .LASF20
     /tmp/ccUCgKZl.s:826    .debug_str:0000000000000010 .LASF22
     /tmp/ccUCgKZl.s:842    .debug_str:000000000000007a .LASF23
     /tmp/ccUCgKZl.s:900    .debug_str:000000000000032c .LASF24
     /tmp/ccUCgKZl.s:850    .debug_str:00000000000000c3 .LASF25
     /tmp/ccUCgKZl.s:880    .debug_str:00000000000001d2 .LASF26
     /tmp/ccUCgKZl.s:864    .debug_str:000000000000013f .LASF27
     /tmp/ccUCgKZl.s:872    .debug_str:0000000000000189 .LASF28
     /tmp/ccUCgKZl.s:846    .debug_str:000000000000009b .LASF29
     /tmp/ccUCgKZl.s:886    .debug_str:00000000000001fb .LASF30
GAS LISTING /tmp/ccUCgKZl.s 			page 13


     /tmp/ccUCgKZl.s:862    .debug_str:0000000000000129 .LASF31
     /tmp/ccUCgKZl.s:828    .debug_str:0000000000000015 .LASF32
     /tmp/ccUCgKZl.s:878    .debug_str:00000000000001c6 .LASF33
     /tmp/ccUCgKZl.s:892    .debug_str:0000000000000241 .LASF34
     /tmp/ccUCgKZl.s:70     .text:0000000000000038 .LVL2
     /tmp/ccUCgKZl.s:234    .debug_info:0000000000000000 .Ldebug_info0

UNDEFINED SYMBOLS
_Z11printStringPKc
_Z4getcv
_Z18Threads_C_API_testv
_Z20Threads_CPP_API_testv
_Z22producerConsumer_C_APIv
_Z29producerConsumer_CPP_Sync_APIv
_Z16System_Mode_testv
_Z7modFuncv
