GAS LISTING /tmp/ccliuxXB.s 			page 1


   1              		.file	"syncSemaphore.cpp"
   2              		.option pic
   3              		.option norelax
   4              		.text
   5              	.Ltext0:
   6              		.align	2
   7              		.globl	_ZN13SyncSemaphore19createSyncSemaphoreEi
   9              	_ZN13SyncSemaphore19createSyncSemaphoreEi:
  10              	.LFB29:
  11              		.file 1 "src/syncSemaphore.cpp"
   1:src/syncSemaphore.cpp **** #include "../h/syncSemaphore.hpp"
   2:src/syncSemaphore.cpp **** #include "../h/syscall_c.hpp"
   3:src/syncSemaphore.cpp **** 
   4:src/syncSemaphore.cpp **** SyncSemaphore *SyncSemaphore::createSyncSemaphore(int semValue){
  12              		.loc 1 4 64
  13              		.cfi_startproc
  14              	.LVL0:
  15 0000 130101FE 		addi	sp,sp,-32
  16              		.cfi_def_cfa_offset 32
  17 0004 233C1100 		sd	ra,24(sp)
  18 0008 23388100 		sd	s0,16(sp)
  19 000c 23349100 		sd	s1,8(sp)
  20              		.cfi_offset 1, -8
  21              		.cfi_offset 8, -16
  22              		.cfi_offset 9, -24
  23 0010 13040102 		addi	s0,sp,32
  24              		.cfi_def_cfa 8, 0
  25 0014 93040500 		mv	s1,a0
   5:src/syncSemaphore.cpp ****     return new SyncSemaphore(semValue);
  26              		.loc 1 5 5
  27              		.loc 1 5 38 is_stmt 0
  28 0018 13050002 		li	a0,32
  29              	.LVL1:
  30 001c 97000000 		call	_Znwm@plt
  30      E7800000 
  31              	.LVL2:
  32              	.LBB35:
  33              	.LBB36:
  34              	.LBB37:
  35              	.LBB38:
  36              		.file 2 "src/../h/list.hpp"
   1:src/../h/list.hpp **** 
   2:src/../h/list.hpp **** #ifndef PROJECT_V1_1_LIST_HPP
   3:src/../h/list.hpp **** #define PROJECT_V1_1_LIST_HPP
   4:src/../h/list.hpp **** 
   5:src/../h/list.hpp **** #include "memoryAllocator.hpp"
   6:src/../h/list.hpp **** 
   7:src/../h/list.hpp **** template<typename T>
   8:src/../h/list.hpp **** class List
   9:src/../h/list.hpp **** {
  10:src/../h/list.hpp **** private:
  11:src/../h/list.hpp ****     struct Elem
  12:src/../h/list.hpp ****     {
  13:src/../h/list.hpp ****         T *data;
  14:src/../h/list.hpp ****         Elem *next;
  15:src/../h/list.hpp **** 
  16:src/../h/list.hpp ****         Elem(T *data, Elem *next) : data(data), next(next) {}
GAS LISTING /tmp/ccliuxXB.s 			page 2


  17:src/../h/list.hpp **** 
  18:src/../h/list.hpp ****     };
  19:src/../h/list.hpp **** 
  20:src/../h/list.hpp ****     Elem *head, *tail;
  21:src/../h/list.hpp **** 
  22:src/../h/list.hpp **** public:
  23:src/../h/list.hpp ****     List() : head(0), tail(0) {}
  37              		.loc 2 23 29
  38 0024 23340500 		sd	zero,8(a0)
  39 0028 23380500 		sd	zero,16(a0)
  40              	.LVL3:
  41              	.LBE38:
  42              	.LBE37:
  43              		.file 3 "src/../h/syncSemaphore.hpp"
   1:src/../h/syncSemaphore.hpp **** 
   2:src/../h/syncSemaphore.hpp **** #ifndef PROJECT_V1_1_SYNCSEMAPHORE_HPP
   3:src/../h/syncSemaphore.hpp **** #define PROJECT_V1_1_SYNCSEMAPHORE_HPP
   4:src/../h/syncSemaphore.hpp **** 
   5:src/../h/syncSemaphore.hpp **** #include "list.hpp"
   6:src/../h/syncSemaphore.hpp **** #include "tcb.hpp"
   7:src/../h/syncSemaphore.hpp **** #include "memoryAllocator.hpp"
   8:src/../h/syncSemaphore.hpp **** 
   9:src/../h/syncSemaphore.hpp **** class SyncSemaphore
  10:src/../h/syncSemaphore.hpp **** {
  11:src/../h/syncSemaphore.hpp **** private:
  12:src/../h/syncSemaphore.hpp ****     int semValue;
  13:src/../h/syncSemaphore.hpp ****     List<TCB> blockedList;
  14:src/../h/syncSemaphore.hpp ****     bool done;
  15:src/../h/syncSemaphore.hpp **** 
  16:src/../h/syncSemaphore.hpp **** public:
  17:src/../h/syncSemaphore.hpp ****     explicit SyncSemaphore(int semValue = 1) { this->semValue = semValue; this->done = false;}
  44              		.loc 3 17 48 is_stmt 1
  45              		.loc 3 17 63 is_stmt 0
  46 002c 23209500 		sw	s1,0(a0)
  47              		.loc 3 17 75 is_stmt 1
  48              		.loc 3 17 86 is_stmt 0
  49 0030 230C0500 		sb	zero,24(a0)
  50              	.LVL4:
  51              	.LBE36:
  52              	.LBE35:
   6:src/syncSemaphore.cpp **** }
  53              		.loc 1 6 1
  54 0034 83308101 		ld	ra,24(sp)
  55              		.cfi_restore 1
  56 0038 03340101 		ld	s0,16(sp)
  57              		.cfi_restore 8
  58              		.cfi_def_cfa 2, 32
  59 003c 83348100 		ld	s1,8(sp)
  60              		.cfi_restore 9
  61 0040 13010102 		addi	sp,sp,32
  62              		.cfi_def_cfa_offset 0
  63 0044 67800000 		jr	ra
  64              		.cfi_endproc
  65              	.LFE29:
  67              		.align	2
  68              		.globl	_ZN13SyncSemaphore4waitEv
  70              	_ZN13SyncSemaphore4waitEv:
GAS LISTING /tmp/ccliuxXB.s 			page 3


  71              	.LFB30:
   7:src/syncSemaphore.cpp **** 
   8:src/syncSemaphore.cpp **** int SyncSemaphore::wait()
   9:src/syncSemaphore.cpp **** {
  72              		.loc 1 9 1 is_stmt 1
  73              		.cfi_startproc
  74              	.LVL5:
  10:src/syncSemaphore.cpp ****     if(done) return -1;
  75              		.loc 1 10 5
  76              		.loc 1 10 8 is_stmt 0
  77 0048 83478501 		lbu	a5,24(a0)
  78              		.loc 1 10 5
  79 004c 639C070A 		bnez	a5,.L7
   9:src/syncSemaphore.cpp ****     if(done) return -1;
  80              		.loc 1 9 1
  81 0050 130101FE 		addi	sp,sp,-32
  82              		.cfi_def_cfa_offset 32
  83 0054 233C1100 		sd	ra,24(sp)
  84 0058 23388100 		sd	s0,16(sp)
  85 005c 23349100 		sd	s1,8(sp)
  86 0060 23302101 		sd	s2,0(sp)
  87              		.cfi_offset 1, -8
  88              		.cfi_offset 8, -16
  89              		.cfi_offset 9, -24
  90              		.cfi_offset 18, -32
  91 0064 13040102 		addi	s0,sp,32
  92              		.cfi_def_cfa 8, 0
  93 0068 93040500 		mv	s1,a0
  11:src/syncSemaphore.cpp **** 
  12:src/syncSemaphore.cpp ****     if(--semValue < 0) {
  94              		.loc 1 12 5 is_stmt 1
  95              		.loc 1 12 10 is_stmt 0
  96 006c 83270500 		lw	a5,0(a0)
  97              		.loc 1 12 8
  98 0070 9B87F7FF 		addiw	a5,a5,-1
  99              		.loc 1 12 19
 100 0074 2320F500 		sw	a5,0(a0)
 101              		.loc 1 12 5
 102 0078 13970702 		slli	a4,a5,32
 103 007c 63400702 		bltz	a4,.L14
  13:src/syncSemaphore.cpp ****         blockedList.addLast(TCB::running);
  14:src/syncSemaphore.cpp ****         TCB::running->setBlocked(true);
  15:src/syncSemaphore.cpp ****         thread_dispatch();
  16:src/syncSemaphore.cpp **** 
  17:src/syncSemaphore.cpp ****         if(done) return -1;
  18:src/syncSemaphore.cpp ****     }
  19:src/syncSemaphore.cpp ****     return 0;
 104              		.loc 1 19 12
 105 0080 13050000 		li	a0,0
 106              	.LVL6:
 107              	.L4:
  20:src/syncSemaphore.cpp **** }
 108              		.loc 1 20 1
 109 0084 83308101 		ld	ra,24(sp)
 110              		.cfi_remember_state
 111              		.cfi_restore 1
 112 0088 03340101 		ld	s0,16(sp)
GAS LISTING /tmp/ccliuxXB.s 			page 4


 113              		.cfi_restore 8
 114              		.cfi_def_cfa 2, 32
 115 008c 83348100 		ld	s1,8(sp)
 116              		.cfi_restore 9
 117              	.LVL7:
 118 0090 03390100 		ld	s2,0(sp)
 119              		.cfi_restore 18
 120 0094 13010102 		addi	sp,sp,32
 121              		.cfi_def_cfa_offset 0
 122 0098 67800000 		jr	ra
 123              	.LVL8:
 124              	.L14:
 125              		.cfi_restore_state
  13:src/syncSemaphore.cpp ****         blockedList.addLast(TCB::running);
 126              		.loc 1 13 9 is_stmt 1
  13:src/syncSemaphore.cpp ****         blockedList.addLast(TCB::running);
 127              		.loc 1 13 28 is_stmt 0
 128 009c 97070000 		la	a5,_ZN3TCB7runningE
 128      83B70700 
 129 00a4 03B90700 		ld	s2,0(a5)
 130              	.LVL9:
 131              	.LBB39:
 132              	.LBB40:
  24:src/../h/list.hpp **** 
  25:src/../h/list.hpp ****     List(const List<T> &) = delete;
  26:src/../h/list.hpp **** 
  27:src/../h/list.hpp ****     List<T> &operator=(const List<T> &) = delete;
  28:src/../h/list.hpp **** 
  29:src/../h/list.hpp ****     void addFirst(T *data)
  30:src/../h/list.hpp ****     {
  31:src/../h/list.hpp ****         Elem *elem = new Elem(data, head);
  32:src/../h/list.hpp ****         head = elem;
  33:src/../h/list.hpp ****         if (!tail) { tail = head; }
  34:src/../h/list.hpp ****     }
  35:src/../h/list.hpp **** 
  36:src/../h/list.hpp ****     void addLast(T *data)
  37:src/../h/list.hpp ****     {
  38:src/../h/list.hpp ****         Elem *elem = new Elem(data, 0);
 133              		.loc 2 38 22
 134 00a8 13050001 		li	a0,16
 135 00ac 97000000 		call	_Znwm@plt
 135      E7800000 
 136              	.LVL10:
 137              	.LBB41:
 138              	.LBB42:
  16:src/../h/list.hpp **** 
 139              		.loc 2 16 58
 140 00b4 23302501 		sd	s2,0(a0)
 141 00b8 23340500 		sd	zero,8(a0)
 142              	.LVL11:
 143              	.LBE42:
 144              	.LBE41:
  39:src/../h/list.hpp ****         if (tail)
 145              		.loc 2 39 13
 146 00bc 83B70401 		ld	a5,16(s1)
 147              		.loc 2 39 9
 148 00c0 638C0702 		beqz	a5,.L5
GAS LISTING /tmp/ccliuxXB.s 			page 5


  40:src/../h/list.hpp ****         {
  41:src/../h/list.hpp ****             tail->next = elem;
 149              		.loc 2 41 13
 150 00c4 23B4A700 		sd	a0,8(a5)
  42:src/../h/list.hpp ****             tail = elem;
 151              		.loc 2 42 13
 152 00c8 23B8A400 		sd	a0,16(s1)
 153              	.L6:
 154              	.LVL12:
 155              	.LBE40:
 156              	.LBE39:
  14:src/syncSemaphore.cpp ****         thread_dispatch();
 157              		.loc 1 14 9 is_stmt 1
  14:src/syncSemaphore.cpp ****         thread_dispatch();
 158              		.loc 1 14 33 is_stmt 0
 159 00cc 97070000 		la	a5,_ZN3TCB7runningE
 159      83B70700 
 160 00d4 83B70700 		ld	a5,0(a5)
 161              	.LVL13:
 162              	.LBB44:
 163              	.LBB45:
 164              		.file 4 "src/../h/tcb.hpp"
   1:src/../h/tcb.hpp **** 
   2:src/../h/tcb.hpp **** #ifndef PROJECT_V1_1_TCB_HPP
   3:src/../h/tcb.hpp **** #define PROJECT_V1_1_TCB_HPP
   4:src/../h/tcb.hpp **** 
   5:src/../h/tcb.hpp **** #include "../lib/hw.h"
   6:src/../h/tcb.hpp **** #include "scheduler.hpp"
   7:src/../h/tcb.hpp **** #include "memoryAllocator.hpp"
   8:src/../h/tcb.hpp **** 
   9:src/../h/tcb.hpp **** 
  10:src/../h/tcb.hpp **** class TCB
  11:src/../h/tcb.hpp **** {
  12:src/../h/tcb.hpp **** public:
  13:src/../h/tcb.hpp ****     ~TCB() { delete[] stack; }
  14:src/../h/tcb.hpp **** 
  15:src/../h/tcb.hpp ****     bool isFinished() const { return finished; }
  16:src/../h/tcb.hpp **** 
  17:src/../h/tcb.hpp ****     void setFinished(bool value) { finished = value; }
  18:src/../h/tcb.hpp **** 
  19:src/../h/tcb.hpp ****     bool isBlocked() const { return this->blocked; }
  20:src/../h/tcb.hpp **** 
  21:src/../h/tcb.hpp ****     void setBlocked(bool value) { this->blocked = value; }
 165              		.loc 4 21 35 is_stmt 1
 166              		.loc 4 21 49 is_stmt 0
 167 00d8 13071000 		li	a4,1
 168 00dc A380E702 		sb	a4,33(a5)
 169              	.LVL14:
 170              	.LBE45:
 171              	.LBE44:
  15:src/syncSemaphore.cpp **** 
 172              		.loc 1 15 9 is_stmt 1
  15:src/syncSemaphore.cpp **** 
 173              		.loc 1 15 24 is_stmt 0
 174 00e0 97000000 		call	_Z15thread_dispatchv@plt
 174      E7800000 
 175              	.LVL15:
GAS LISTING /tmp/ccliuxXB.s 			page 6


  17:src/syncSemaphore.cpp ****     }
 176              		.loc 1 17 9 is_stmt 1
  17:src/syncSemaphore.cpp ****     }
 177              		.loc 1 17 12 is_stmt 0
 178 00e8 83C78401 		lbu	a5,24(s1)
  17:src/syncSemaphore.cpp ****     }
 179              		.loc 1 17 9
 180 00ec 63900702 		bnez	a5,.L9
  19:src/syncSemaphore.cpp **** }
 181              		.loc 1 19 12
 182 00f0 13050000 		li	a0,0
 183 00f4 6FF01FF9 		j	.L4
 184              	.LVL16:
 185              	.L5:
 186              	.LBB46:
 187              	.LBB43:
  43:src/../h/list.hpp ****         } else
  44:src/../h/list.hpp ****         {
  45:src/../h/list.hpp ****             head = tail = elem;
 188              		.loc 2 45 13
 189 00f8 23B8A400 		sd	a0,16(s1)
 190 00fc 23B4A400 		sd	a0,8(s1)
 191 0100 6FF0DFFC 		j	.L6
 192              	.LVL17:
 193              	.L7:
 194              		.cfi_def_cfa_register 2
 195              		.cfi_restore 1
 196              		.cfi_restore 8
 197              		.cfi_restore 9
 198              		.cfi_restore 18
 199              	.LBE43:
 200              	.LBE46:
  10:src/syncSemaphore.cpp **** 
 201              		.loc 1 10 22
 202 0104 1305F0FF 		li	a0,-1
 203              	.LVL18:
 204              		.loc 1 20 1
 205 0108 67800000 		ret
 206              	.LVL19:
 207              	.L9:
 208              		.cfi_def_cfa_register 8
 209              		.cfi_offset 1, -8
 210              		.cfi_offset 8, -16
 211              		.cfi_offset 9, -24
 212              		.cfi_offset 18, -32
  17:src/syncSemaphore.cpp ****     }
 213              		.loc 1 17 26
 214 010c 1305F0FF 		li	a0,-1
 215 0110 6FF05FF7 		j	.L4
 216              		.cfi_endproc
 217              	.LFE30:
 219              		.align	2
 220              		.globl	_ZN13SyncSemaphore6signalEv
 222              	_ZN13SyncSemaphore6signalEv:
 223              	.LFB31:
  21:src/syncSemaphore.cpp **** 
  22:src/syncSemaphore.cpp **** int SyncSemaphore::signal()
GAS LISTING /tmp/ccliuxXB.s 			page 7


  23:src/syncSemaphore.cpp **** {
 224              		.loc 1 23 1 is_stmt 1
 225              		.cfi_startproc
 226              	.LVL20:
  24:src/syncSemaphore.cpp ****     if(done) return -1;
 227              		.loc 1 24 5
 228              		.loc 1 24 8 is_stmt 0
 229 0114 03478501 		lbu	a4,24(a0)
 230              		.loc 1 24 5
 231 0118 63180708 		bnez	a4,.L19
 232 011c 93070500 		mv	a5,a0
  25:src/syncSemaphore.cpp **** 
  26:src/syncSemaphore.cpp ****     if(++semValue <= 0) {
 233              		.loc 1 26 5 is_stmt 1
 234              	.LBB47:
 235              		.loc 1 26 10 is_stmt 0
 236 0120 03270500 		lw	a4,0(a0)
 237              		.loc 1 26 8
 238 0124 1B071700 		addiw	a4,a4,1
 239 0128 9B060700 		sext.w	a3,a4
 240              		.loc 1 26 19
 241 012c 2320E500 		sw	a4,0(a0)
 242              		.loc 1 26 5
 243 0130 6356D000 		blez	a3,.L26
 244              	.LBE47:
  27:src/syncSemaphore.cpp ****         TCB *tcb = blockedList.removeFirst();
  28:src/syncSemaphore.cpp ****         tcb->setBlocked(false);
  29:src/syncSemaphore.cpp ****         Scheduler::put(tcb);
  30:src/syncSemaphore.cpp ****     }
  31:src/syncSemaphore.cpp ****     return 0;
 245              		.loc 1 31 12
 246 0134 13050000 		li	a0,0
 247              	.LVL21:
  32:src/syncSemaphore.cpp **** }
 248              		.loc 1 32 1
 249 0138 67800000 		ret
 250              	.LVL22:
 251              	.L26:
  23:src/syncSemaphore.cpp ****     if(done) return -1;
 252              		.loc 1 23 1
 253 013c 130101FE 		addi	sp,sp,-32
 254              		.cfi_def_cfa_offset 32
 255 0140 233C1100 		sd	ra,24(sp)
 256 0144 23388100 		sd	s0,16(sp)
 257 0148 23349100 		sd	s1,8(sp)
 258              		.cfi_offset 1, -8
 259              		.cfi_offset 8, -16
 260              		.cfi_offset 9, -24
 261 014c 13040102 		addi	s0,sp,32
 262              		.cfi_def_cfa 8, 0
 263              	.LBB56:
 264              	.LBB48:
  27:src/syncSemaphore.cpp ****         TCB *tcb = blockedList.removeFirst();
 265              		.loc 1 27 9 is_stmt 1
 266              	.LVL23:
 267              	.LBB49:
 268              	.LBB50:
GAS LISTING /tmp/ccliuxXB.s 			page 8


  46:src/../h/list.hpp ****         }
  47:src/../h/list.hpp ****     }
  48:src/../h/list.hpp **** 
  49:src/../h/list.hpp ****     T *removeFirst()
  50:src/../h/list.hpp ****     {
  51:src/../h/list.hpp ****         if (!head) { return 0; }
 269              		.loc 2 51 14 is_stmt 0
 270 0150 03358500 		ld	a0,8(a0)
 271              	.LVL24:
 272              		.loc 2 51 9
 273 0154 63060504 		beqz	a0,.L21
 274              	.LVL25:
  52:src/../h/list.hpp **** 
  53:src/../h/list.hpp ****         Elem *elem = head;
  54:src/../h/list.hpp ****         head = head->next;
 275              		.loc 2 54 22
 276 0158 03378500 		ld	a4,8(a0)
 277              		.loc 2 54 9
 278 015c 23B4E700 		sd	a4,8(a5)
  55:src/../h/list.hpp ****         if (!head) { tail = 0; }
 279              		.loc 2 55 9
 280 0160 630C0702 		beqz	a4,.L27
 281              	.L18:
  56:src/../h/list.hpp **** 
  57:src/../h/list.hpp ****         T *ret = elem->data;
 282              		.loc 2 57 12
 283 0164 83340500 		ld	s1,0(a0)
 284              	.LVL26:
  58:src/../h/list.hpp ****         delete elem;
 285              		.loc 2 58 9
 286 0168 97000000 		call	_ZdlPv@plt
 286      E7800000 
 287              	.LVL27:
 288              	.L17:
 289              	.LBE50:
 290              	.LBE49:
  28:src/syncSemaphore.cpp ****         Scheduler::put(tcb);
 291              		.loc 1 28 9 is_stmt 1
 292              	.LBB52:
 293              	.LBB53:
 294              		.loc 4 21 35
 295              		.loc 4 21 49 is_stmt 0
 296 0170 A3800402 		sb	zero,33(s1)
 297              	.LVL28:
 298              	.LBE53:
 299              	.LBE52:
  29:src/syncSemaphore.cpp ****     }
 300              		.loc 1 29 9 is_stmt 1
  29:src/syncSemaphore.cpp ****     }
 301              		.loc 1 29 23 is_stmt 0
 302 0174 13850400 		mv	a0,s1
 303 0178 97000000 		call	_ZN9Scheduler3putEP3TCB@plt
 303      E7800000 
 304              	.LVL29:
 305              	.LBE48:
 306              	.LBE56:
  31:src/syncSemaphore.cpp **** }
GAS LISTING /tmp/ccliuxXB.s 			page 9


 307              		.loc 1 31 12
 308 0180 13050000 		li	a0,0
 309              		.loc 1 32 1
 310 0184 83308101 		ld	ra,24(sp)
 311              		.cfi_remember_state
 312              		.cfi_restore 1
 313 0188 03340101 		ld	s0,16(sp)
 314              		.cfi_restore 8
 315              		.cfi_def_cfa 2, 32
 316 018c 83348100 		ld	s1,8(sp)
 317              		.cfi_restore 9
 318              	.LVL30:
 319 0190 13010102 		addi	sp,sp,32
 320              		.cfi_def_cfa_offset 0
 321 0194 67800000 		jr	ra
 322              	.LVL31:
 323              	.L27:
 324              		.cfi_restore_state
 325              	.LBB57:
 326              	.LBB55:
 327              	.LBB54:
 328              	.LBB51:
  55:src/../h/list.hpp **** 
 329              		.loc 2 55 22
 330 0198 23B80700 		sd	zero,16(a5)
 331 019c 6FF09FFC 		j	.L18
 332              	.LVL32:
 333              	.L21:
  51:src/../h/list.hpp **** 
 334              		.loc 2 51 29
 335 01a0 93040500 		mv	s1,a0
 336 01a4 6FF0DFFC 		j	.L17
 337              	.LVL33:
 338              	.L19:
 339              		.cfi_def_cfa_register 2
 340              		.cfi_restore 1
 341              		.cfi_restore 8
 342              		.cfi_restore 9
 343              	.LBE51:
 344              	.LBE54:
 345              	.LBE55:
 346              	.LBE57:
  24:src/syncSemaphore.cpp **** 
 347              		.loc 1 24 22
 348 01a8 1305F0FF 		li	a0,-1
 349              	.LVL34:
 350 01ac 67800000 		ret
 351              		.cfi_endproc
 352              	.LFE31:
 354              		.align	2
 355              		.globl	_ZN13SyncSemaphore5closeEv
 357              	_ZN13SyncSemaphore5closeEv:
 358              	.LFB32:
  33:src/syncSemaphore.cpp **** 
  34:src/syncSemaphore.cpp **** int SyncSemaphore::close()
  35:src/syncSemaphore.cpp **** {
 359              		.loc 1 35 1 is_stmt 1
GAS LISTING /tmp/ccliuxXB.s 			page 10


 360              		.cfi_startproc
 361              	.LVL35:
  36:src/syncSemaphore.cpp ****     if (done) return -1;
 362              		.loc 1 36 5
 363              		.loc 1 36 9 is_stmt 0
 364 01b0 83478501 		lbu	a5,24(a0)
 365              		.loc 1 36 5
 366 01b4 63960706 		bnez	a5,.L32
  35:src/syncSemaphore.cpp ****     if (done) return -1;
 367              		.loc 1 35 1
 368 01b8 130101FE 		addi	sp,sp,-32
 369              		.cfi_def_cfa_offset 32
 370 01bc 233C1100 		sd	ra,24(sp)
 371 01c0 23388100 		sd	s0,16(sp)
 372 01c4 23349100 		sd	s1,8(sp)
 373 01c8 23302101 		sd	s2,0(sp)
 374              		.cfi_offset 1, -8
 375              		.cfi_offset 8, -16
 376              		.cfi_offset 9, -24
 377              		.cfi_offset 18, -32
 378 01cc 13040102 		addi	s0,sp,32
 379              		.cfi_def_cfa 8, 0
 380 01d0 93040500 		mv	s1,a0
  37:src/syncSemaphore.cpp ****     done = true;
 381              		.loc 1 37 5 is_stmt 1
 382              		.loc 1 37 10 is_stmt 0
 383 01d4 93071000 		li	a5,1
 384 01d8 230CF500 		sb	a5,24(a0)
 385 01dc 6F004002 		j	.L31
 386              	.LVL36:
 387              	.L39:
 388              	.LBB58:
 389              	.LBB59:
 390              	.LBB60:
  55:src/../h/list.hpp **** 
 391              		.loc 2 55 22
 392 01e0 23B80400 		sd	zero,16(s1)
 393              	.L30:
  57:src/../h/list.hpp ****         delete elem;
 394              		.loc 2 57 12
 395 01e4 03390500 		ld	s2,0(a0)
 396              	.LVL37:
 397              		.loc 2 58 9
 398 01e8 97000000 		call	_ZdlPv@plt
 398      E7800000 
 399              	.LVL38:
 400              	.LBE60:
 401              	.LBE59:
  38:src/syncSemaphore.cpp **** 
  39:src/syncSemaphore.cpp ****     while (blockedList.peekFirst()) {
  40:src/syncSemaphore.cpp ****         TCB* tcb = blockedList.removeFirst();
  41:src/syncSemaphore.cpp ****         tcb->setBlocked(false);
 402              		.loc 1 41 9 is_stmt 1
 403              	.LBB62:
 404              	.LBB63:
 405              		.loc 4 21 35
 406              		.loc 4 21 49 is_stmt 0
GAS LISTING /tmp/ccliuxXB.s 			page 11


 407 01f0 A3000902 		sb	zero,33(s2)
 408              	.LVL39:
 409              	.LBE63:
 410              	.LBE62:
  42:src/syncSemaphore.cpp ****         Scheduler::put(tcb);
 411              		.loc 1 42 9 is_stmt 1
 412              		.loc 1 42 23 is_stmt 0
 413 01f4 13050900 		mv	a0,s2
 414 01f8 97000000 		call	_ZN9Scheduler3putEP3TCB@plt
 414      E7800000 
 415              	.LVL40:
 416              	.L31:
 417              	.LBE58:
  39:src/syncSemaphore.cpp ****         TCB* tcb = blockedList.removeFirst();
 418              		.loc 1 39 5 is_stmt 1
  39:src/syncSemaphore.cpp ****         TCB* tcb = blockedList.removeFirst();
 419              		.loc 1 39 34
 420              	.LBB65:
 421              	.LBB66:
  59:src/../h/list.hpp ****         return ret;
  60:src/../h/list.hpp ****     }
  61:src/../h/list.hpp **** 
  62:src/../h/list.hpp ****     T *peekFirst()
  63:src/../h/list.hpp ****     {
  64:src/../h/list.hpp ****         if (!head) { return 0; }
 422              		.loc 2 64 14 is_stmt 0
 423 0200 03B58400 		ld	a0,8(s1)
 424              		.loc 2 64 9
 425 0204 63020502 		beqz	a0,.L33
  65:src/../h/list.hpp ****         return head->data;
 426              		.loc 2 65 22
 427 0208 83370500 		ld	a5,0(a0)
 428              	.LVL41:
 429              	.LBE66:
 430              	.LBE65:
  39:src/syncSemaphore.cpp ****         TCB* tcb = blockedList.removeFirst();
 431              		.loc 1 39 34
 432 020c 638C0702 		beqz	a5,.L34
 433              	.LBB67:
  40:src/syncSemaphore.cpp ****         tcb->setBlocked(false);
 434              		.loc 1 40 9 is_stmt 1
 435              	.LVL42:
 436              	.LBB64:
 437              	.LBB61:
  54:src/../h/list.hpp ****         if (!head) { tail = 0; }
 438              		.loc 2 54 22 is_stmt 0
 439 0210 83378500 		ld	a5,8(a0)
  54:src/../h/list.hpp ****         if (!head) { tail = 0; }
 440              		.loc 2 54 9
 441 0214 23B4F400 		sd	a5,8(s1)
  55:src/../h/list.hpp **** 
 442              		.loc 2 55 9
 443 0218 E39607FC 		bnez	a5,.L30
 444 021c 6FF05FFC 		j	.L39
 445              	.LVL43:
 446              	.L32:
 447              		.cfi_def_cfa_register 2
GAS LISTING /tmp/ccliuxXB.s 			page 12


 448              		.cfi_restore 1
 449              		.cfi_restore 8
 450              		.cfi_restore 9
 451              		.cfi_restore 18
 452              	.LBE61:
 453              	.LBE64:
 454              	.LBE67:
  36:src/syncSemaphore.cpp ****     done = true;
 455              		.loc 1 36 23
 456 0220 1305F0FF 		li	a0,-1
 457              	.LVL44:
  43:src/syncSemaphore.cpp ****     }
  44:src/syncSemaphore.cpp ****     return 0;
  45:src/syncSemaphore.cpp **** }
 458              		.loc 1 45 1
 459 0224 67800000 		ret
 460              	.LVL45:
 461              	.L33:
 462              		.cfi_def_cfa_register 8
 463              		.cfi_offset 1, -8
 464              		.cfi_offset 8, -16
 465              		.cfi_offset 9, -24
 466              		.cfi_offset 18, -32
  44:src/syncSemaphore.cpp **** }
 467              		.loc 1 44 12
 468 0228 13050000 		li	a0,0
 469              	.LVL46:
 470              	.L29:
 471              		.loc 1 45 1
 472 022c 83308101 		ld	ra,24(sp)
 473              		.cfi_remember_state
 474              		.cfi_restore 1
 475 0230 03340101 		ld	s0,16(sp)
 476              		.cfi_restore 8
 477              		.cfi_def_cfa 2, 32
 478 0234 83348100 		ld	s1,8(sp)
 479              		.cfi_restore 9
 480              	.LVL47:
 481 0238 03390100 		ld	s2,0(sp)
 482              		.cfi_restore 18
 483 023c 13010102 		addi	sp,sp,32
 484              		.cfi_def_cfa_offset 0
 485 0240 67800000 		jr	ra
 486              	.LVL48:
 487              	.L34:
 488              		.cfi_restore_state
  44:src/syncSemaphore.cpp **** }
 489              		.loc 1 44 12
 490 0244 13050000 		li	a0,0
 491 0248 6FF05FFE 		j	.L29
 492              		.cfi_endproc
 493              	.LFE32:
 495              		.align	2
 496              		.globl	_ZN13SyncSemaphore7tryWaitEv
 498              	_ZN13SyncSemaphore7tryWaitEv:
 499              	.LFB33:
  46:src/syncSemaphore.cpp **** 
GAS LISTING /tmp/ccliuxXB.s 			page 13


  47:src/syncSemaphore.cpp **** 
  48:src/syncSemaphore.cpp **** int SyncSemaphore::tryWait()
  49:src/syncSemaphore.cpp **** {
 500              		.loc 1 49 1 is_stmt 1
 501              		.cfi_startproc
 502              	.LVL49:
 503 024c 130101FF 		addi	sp,sp,-16
 504              		.cfi_def_cfa_offset 16
 505 0250 23348100 		sd	s0,8(sp)
 506              		.cfi_offset 8, -8
 507 0254 13040101 		addi	s0,sp,16
 508              		.cfi_def_cfa 8, 0
  50:src/syncSemaphore.cpp ****     if (done) return -1;
 509              		.loc 1 50 5
 510              		.loc 1 50 9 is_stmt 0
 511 0258 83478501 		lbu	a5,24(a0)
 512              		.loc 1 50 5
 513 025c 639E0702 		bnez	a5,.L43
  51:src/syncSemaphore.cpp **** 
  52:src/syncSemaphore.cpp ****     if (semValue == 1) {
 514              		.loc 1 52 5 is_stmt 1
 515              		.loc 1 52 9 is_stmt 0
 516 0260 83270500 		lw	a5,0(a0)
 517              		.loc 1 52 5
 518 0264 13071000 		li	a4,1
 519 0268 6388E700 		beq	a5,a4,.L46
  53:src/syncSemaphore.cpp ****         --semValue;
  54:src/syncSemaphore.cpp ****         return 0;
  55:src/syncSemaphore.cpp ****     }
  56:src/syncSemaphore.cpp ****     else if (semValue > 0) {
 520              		.loc 1 56 10 is_stmt 1
 521 026c 634EF000 		bgtz	a5,.L47
  57:src/syncSemaphore.cpp ****         --semValue;
  58:src/syncSemaphore.cpp ****         return 1;
  59:src/syncSemaphore.cpp ****     }
  60:src/syncSemaphore.cpp **** 
  61:src/syncSemaphore.cpp ****     return -1;
 522              		.loc 1 61 13 is_stmt 0
 523 0270 1305F0FF 		li	a0,-1
 524              	.LVL50:
 525 0274 6F008002 		j	.L41
 526              	.LVL51:
 527              	.L46:
  53:src/syncSemaphore.cpp ****         --semValue;
 528              		.loc 1 53 9 is_stmt 1
 529 0278 9B87F7FF 		addiw	a5,a5,-1
 530 027c 2320F500 		sw	a5,0(a0)
  54:src/syncSemaphore.cpp ****     }
 531              		.loc 1 54 9
  54:src/syncSemaphore.cpp ****     }
 532              		.loc 1 54 16 is_stmt 0
 533 0280 13050000 		li	a0,0
 534              	.LVL52:
 535 0284 6F008001 		j	.L41
 536              	.LVL53:
 537              	.L47:
  57:src/syncSemaphore.cpp ****         --semValue;
GAS LISTING /tmp/ccliuxXB.s 			page 14


 538              		.loc 1 57 9 is_stmt 1
 539 0288 9B87F7FF 		addiw	a5,a5,-1
 540 028c 2320F500 		sw	a5,0(a0)
  58:src/syncSemaphore.cpp ****     }
 541              		.loc 1 58 9
  58:src/syncSemaphore.cpp ****     }
 542              		.loc 1 58 16 is_stmt 0
 543 0290 13051000 		li	a0,1
 544              	.LVL54:
 545 0294 6F008000 		j	.L41
 546              	.LVL55:
 547              	.L43:
  50:src/syncSemaphore.cpp **** 
 548              		.loc 1 50 23
 549 0298 1305F0FF 		li	a0,-1
 550              	.LVL56:
 551              	.L41:
  62:src/syncSemaphore.cpp **** }
 552              		.loc 1 62 1
 553 029c 03348100 		ld	s0,8(sp)
 554              		.cfi_restore 8
 555              		.cfi_def_cfa 2, 16
 556 02a0 13010101 		addi	sp,sp,16
 557              		.cfi_def_cfa_offset 0
 558 02a4 67800000 		jr	ra
 559              		.cfi_endproc
 560              	.LFE33:
 562              	.Letext0:
 563              		.file 5 "src/../h/../lib/hw.h"
 564              		.file 6 "src/../h/scheduler.hpp"
 565              		.file 7 "src/../h/syscall_c.hpp"
GAS LISTING /tmp/ccliuxXB.s 			page 15


DEFINED SYMBOLS
                            *ABS*:0000000000000000 syncSemaphore.cpp
     /tmp/ccliuxXB.s:9      .text:0000000000000000 _ZN13SyncSemaphore19createSyncSemaphoreEi
     /tmp/ccliuxXB.s:13     .text:0000000000000000 .L0 
     /tmp/ccliuxXB.s:15     .text:0000000000000000 .L0 
     /tmp/ccliuxXB.s:16     .text:0000000000000004 .L0 
     /tmp/ccliuxXB.s:20     .text:0000000000000010 .L0 
     /tmp/ccliuxXB.s:21     .text:0000000000000010 .L0 
     /tmp/ccliuxXB.s:22     .text:0000000000000010 .L0 
     /tmp/ccliuxXB.s:24     .text:0000000000000014 .L0 
     /tmp/ccliuxXB.s:27     .text:0000000000000018 .L0 
     /tmp/ccliuxXB.s:28     .text:0000000000000018 .L0 
     /tmp/ccliuxXB.s:38     .text:0000000000000024 .L0 
     /tmp/ccliuxXB.s:45     .text:000000000000002c .L0 
     /tmp/ccliuxXB.s:46     .text:000000000000002c .L0 
     /tmp/ccliuxXB.s:48     .text:0000000000000030 .L0 
     /tmp/ccliuxXB.s:49     .text:0000000000000030 .L0 
     /tmp/ccliuxXB.s:54     .text:0000000000000034 .L0 
     /tmp/ccliuxXB.s:55     .text:0000000000000038 .L0 
     /tmp/ccliuxXB.s:57     .text:000000000000003c .L0 
     /tmp/ccliuxXB.s:58     .text:000000000000003c .L0 
     /tmp/ccliuxXB.s:60     .text:0000000000000040 .L0 
     /tmp/ccliuxXB.s:62     .text:0000000000000044 .L0 
     /tmp/ccliuxXB.s:64     .text:0000000000000048 .L0 
     /tmp/ccliuxXB.s:70     .text:0000000000000048 _ZN13SyncSemaphore4waitEv
     /tmp/ccliuxXB.s:73     .text:0000000000000048 .L0 
     /tmp/ccliuxXB.s:75     .text:0000000000000048 .L0 
     /tmp/ccliuxXB.s:76     .text:0000000000000048 .L0 
     /tmp/ccliuxXB.s:77     .text:0000000000000048 .L0 
     /tmp/ccliuxXB.s:79     .text:000000000000004c .L0 
     /tmp/ccliuxXB.s:81     .text:0000000000000050 .L0 
     /tmp/ccliuxXB.s:82     .text:0000000000000054 .L0 
     /tmp/ccliuxXB.s:87     .text:0000000000000064 .L0 
     /tmp/ccliuxXB.s:88     .text:0000000000000064 .L0 
     /tmp/ccliuxXB.s:89     .text:0000000000000064 .L0 
     /tmp/ccliuxXB.s:90     .text:0000000000000064 .L0 
     /tmp/ccliuxXB.s:92     .text:0000000000000068 .L0 
     /tmp/ccliuxXB.s:95     .text:000000000000006c .L0 
     /tmp/ccliuxXB.s:96     .text:000000000000006c .L0 
     /tmp/ccliuxXB.s:98     .text:0000000000000070 .L0 
     /tmp/ccliuxXB.s:100    .text:0000000000000074 .L0 
     /tmp/ccliuxXB.s:102    .text:0000000000000078 .L0 
     /tmp/ccliuxXB.s:105    .text:0000000000000080 .L0 
     /tmp/ccliuxXB.s:109    .text:0000000000000084 .L0 
     /tmp/ccliuxXB.s:110    .text:0000000000000088 .L0 
     /tmp/ccliuxXB.s:111    .text:0000000000000088 .L0 
     /tmp/ccliuxXB.s:113    .text:000000000000008c .L0 
     /tmp/ccliuxXB.s:114    .text:000000000000008c .L0 
     /tmp/ccliuxXB.s:116    .text:0000000000000090 .L0 
     /tmp/ccliuxXB.s:119    .text:0000000000000094 .L0 
     /tmp/ccliuxXB.s:121    .text:0000000000000098 .L0 
     /tmp/ccliuxXB.s:125    .text:000000000000009c .L0 
     /tmp/ccliuxXB.s:127    .text:000000000000009c .L0 
     /tmp/ccliuxXB.s:128    .text:000000000000009c .L0 
     /tmp/ccliuxXB.s:134    .text:00000000000000a8 .L0 
     /tmp/ccliuxXB.s:140    .text:00000000000000b4 .L0 
     /tmp/ccliuxXB.s:146    .text:00000000000000bc .L0 
GAS LISTING /tmp/ccliuxXB.s 			page 16


     /tmp/ccliuxXB.s:148    .text:00000000000000c0 .L0 
     /tmp/ccliuxXB.s:150    .text:00000000000000c4 .L0 
     /tmp/ccliuxXB.s:152    .text:00000000000000c8 .L0 
     /tmp/ccliuxXB.s:158    .text:00000000000000cc .L0 
     /tmp/ccliuxXB.s:159    .text:00000000000000cc .L0 
     /tmp/ccliuxXB.s:166    .text:00000000000000d8 .L0 
     /tmp/ccliuxXB.s:167    .text:00000000000000d8 .L0 
     /tmp/ccliuxXB.s:173    .text:00000000000000e0 .L0 
     /tmp/ccliuxXB.s:174    .text:00000000000000e0 .L0 
     /tmp/ccliuxXB.s:177    .text:00000000000000e8 .L0 
     /tmp/ccliuxXB.s:178    .text:00000000000000e8 .L0 
     /tmp/ccliuxXB.s:180    .text:00000000000000ec .L0 
     /tmp/ccliuxXB.s:182    .text:00000000000000f0 .L0 
     /tmp/ccliuxXB.s:189    .text:00000000000000f8 .L0 
     /tmp/ccliuxXB.s:194    .text:0000000000000104 .L0 
     /tmp/ccliuxXB.s:195    .text:0000000000000104 .L0 
     /tmp/ccliuxXB.s:196    .text:0000000000000104 .L0 
     /tmp/ccliuxXB.s:197    .text:0000000000000104 .L0 
     /tmp/ccliuxXB.s:198    .text:0000000000000104 .L0 
     /tmp/ccliuxXB.s:202    .text:0000000000000104 .L0 
     /tmp/ccliuxXB.s:205    .text:0000000000000108 .L0 
     /tmp/ccliuxXB.s:208    .text:000000000000010c .L0 
     /tmp/ccliuxXB.s:209    .text:000000000000010c .L0 
     /tmp/ccliuxXB.s:210    .text:000000000000010c .L0 
     /tmp/ccliuxXB.s:211    .text:000000000000010c .L0 
     /tmp/ccliuxXB.s:212    .text:000000000000010c .L0 
     /tmp/ccliuxXB.s:214    .text:000000000000010c .L0 
     /tmp/ccliuxXB.s:216    .text:0000000000000114 .L0 
     /tmp/ccliuxXB.s:222    .text:0000000000000114 _ZN13SyncSemaphore6signalEv
     /tmp/ccliuxXB.s:225    .text:0000000000000114 .L0 
     /tmp/ccliuxXB.s:227    .text:0000000000000114 .L0 
     /tmp/ccliuxXB.s:228    .text:0000000000000114 .L0 
     /tmp/ccliuxXB.s:229    .text:0000000000000114 .L0 
     /tmp/ccliuxXB.s:231    .text:0000000000000118 .L0 
     /tmp/ccliuxXB.s:235    .text:0000000000000120 .L0 
     /tmp/ccliuxXB.s:236    .text:0000000000000120 .L0 
     /tmp/ccliuxXB.s:238    .text:0000000000000124 .L0 
     /tmp/ccliuxXB.s:241    .text:000000000000012c .L0 
     /tmp/ccliuxXB.s:243    .text:0000000000000130 .L0 
     /tmp/ccliuxXB.s:246    .text:0000000000000134 .L0 
     /tmp/ccliuxXB.s:249    .text:0000000000000138 .L0 
     /tmp/ccliuxXB.s:253    .text:000000000000013c .L0 
     /tmp/ccliuxXB.s:254    .text:0000000000000140 .L0 
     /tmp/ccliuxXB.s:258    .text:000000000000014c .L0 
     /tmp/ccliuxXB.s:259    .text:000000000000014c .L0 
     /tmp/ccliuxXB.s:260    .text:000000000000014c .L0 
     /tmp/ccliuxXB.s:262    .text:0000000000000150 .L0 
     /tmp/ccliuxXB.s:269    .text:0000000000000150 .L0 
     /tmp/ccliuxXB.s:270    .text:0000000000000150 .L0 
     /tmp/ccliuxXB.s:273    .text:0000000000000154 .L0 
     /tmp/ccliuxXB.s:276    .text:0000000000000158 .L0 
     /tmp/ccliuxXB.s:278    .text:000000000000015c .L0 
     /tmp/ccliuxXB.s:280    .text:0000000000000160 .L0 
     /tmp/ccliuxXB.s:283    .text:0000000000000164 .L0 
     /tmp/ccliuxXB.s:286    .text:0000000000000168 .L0 
     /tmp/ccliuxXB.s:294    .text:0000000000000170 .L0 
     /tmp/ccliuxXB.s:295    .text:0000000000000170 .L0 
GAS LISTING /tmp/ccliuxXB.s 			page 17


     /tmp/ccliuxXB.s:296    .text:0000000000000170 .L0 
     /tmp/ccliuxXB.s:301    .text:0000000000000174 .L0 
     /tmp/ccliuxXB.s:302    .text:0000000000000174 .L0 
     /tmp/ccliuxXB.s:308    .text:0000000000000180 .L0 
     /tmp/ccliuxXB.s:310    .text:0000000000000184 .L0 
     /tmp/ccliuxXB.s:311    .text:0000000000000188 .L0 
     /tmp/ccliuxXB.s:312    .text:0000000000000188 .L0 
     /tmp/ccliuxXB.s:314    .text:000000000000018c .L0 
     /tmp/ccliuxXB.s:315    .text:000000000000018c .L0 
     /tmp/ccliuxXB.s:317    .text:0000000000000190 .L0 
     /tmp/ccliuxXB.s:320    .text:0000000000000194 .L0 
     /tmp/ccliuxXB.s:324    .text:0000000000000198 .L0 
     /tmp/ccliuxXB.s:330    .text:0000000000000198 .L0 
     /tmp/ccliuxXB.s:335    .text:00000000000001a0 .L0 
     /tmp/ccliuxXB.s:339    .text:00000000000001a8 .L0 
     /tmp/ccliuxXB.s:340    .text:00000000000001a8 .L0 
     /tmp/ccliuxXB.s:341    .text:00000000000001a8 .L0 
     /tmp/ccliuxXB.s:342    .text:00000000000001a8 .L0 
     /tmp/ccliuxXB.s:348    .text:00000000000001a8 .L0 
     /tmp/ccliuxXB.s:351    .text:00000000000001b0 .L0 
     /tmp/ccliuxXB.s:357    .text:00000000000001b0 _ZN13SyncSemaphore5closeEv
     /tmp/ccliuxXB.s:360    .text:00000000000001b0 .L0 
     /tmp/ccliuxXB.s:362    .text:00000000000001b0 .L0 
     /tmp/ccliuxXB.s:363    .text:00000000000001b0 .L0 
     /tmp/ccliuxXB.s:364    .text:00000000000001b0 .L0 
     /tmp/ccliuxXB.s:366    .text:00000000000001b4 .L0 
     /tmp/ccliuxXB.s:368    .text:00000000000001b8 .L0 
     /tmp/ccliuxXB.s:369    .text:00000000000001bc .L0 
     /tmp/ccliuxXB.s:374    .text:00000000000001cc .L0 
     /tmp/ccliuxXB.s:375    .text:00000000000001cc .L0 
     /tmp/ccliuxXB.s:376    .text:00000000000001cc .L0 
     /tmp/ccliuxXB.s:377    .text:00000000000001cc .L0 
     /tmp/ccliuxXB.s:379    .text:00000000000001d0 .L0 
     /tmp/ccliuxXB.s:382    .text:00000000000001d4 .L0 
     /tmp/ccliuxXB.s:383    .text:00000000000001d4 .L0 
     /tmp/ccliuxXB.s:392    .text:00000000000001e0 .L0 
     /tmp/ccliuxXB.s:395    .text:00000000000001e4 .L0 
     /tmp/ccliuxXB.s:398    .text:00000000000001e8 .L0 
     /tmp/ccliuxXB.s:405    .text:00000000000001f0 .L0 
     /tmp/ccliuxXB.s:406    .text:00000000000001f0 .L0 
     /tmp/ccliuxXB.s:407    .text:00000000000001f0 .L0 
     /tmp/ccliuxXB.s:412    .text:00000000000001f4 .L0 
     /tmp/ccliuxXB.s:413    .text:00000000000001f4 .L0 
     /tmp/ccliuxXB.s:419    .text:0000000000000200 .L0 
     /tmp/ccliuxXB.s:422    .text:0000000000000200 .L0 
     /tmp/ccliuxXB.s:423    .text:0000000000000200 .L0 
     /tmp/ccliuxXB.s:425    .text:0000000000000204 .L0 
     /tmp/ccliuxXB.s:427    .text:0000000000000208 .L0 
     /tmp/ccliuxXB.s:432    .text:000000000000020c .L0 
     /tmp/ccliuxXB.s:438    .text:0000000000000210 .L0 
     /tmp/ccliuxXB.s:439    .text:0000000000000210 .L0 
     /tmp/ccliuxXB.s:441    .text:0000000000000214 .L0 
     /tmp/ccliuxXB.s:443    .text:0000000000000218 .L0 
     /tmp/ccliuxXB.s:447    .text:0000000000000220 .L0 
     /tmp/ccliuxXB.s:448    .text:0000000000000220 .L0 
     /tmp/ccliuxXB.s:449    .text:0000000000000220 .L0 
     /tmp/ccliuxXB.s:450    .text:0000000000000220 .L0 
GAS LISTING /tmp/ccliuxXB.s 			page 18


     /tmp/ccliuxXB.s:451    .text:0000000000000220 .L0 
     /tmp/ccliuxXB.s:456    .text:0000000000000220 .L0 
     /tmp/ccliuxXB.s:459    .text:0000000000000224 .L0 
     /tmp/ccliuxXB.s:462    .text:0000000000000228 .L0 
     /tmp/ccliuxXB.s:463    .text:0000000000000228 .L0 
     /tmp/ccliuxXB.s:464    .text:0000000000000228 .L0 
     /tmp/ccliuxXB.s:465    .text:0000000000000228 .L0 
     /tmp/ccliuxXB.s:466    .text:0000000000000228 .L0 
     /tmp/ccliuxXB.s:468    .text:0000000000000228 .L0 
     /tmp/ccliuxXB.s:472    .text:000000000000022c .L0 
     /tmp/ccliuxXB.s:473    .text:0000000000000230 .L0 
     /tmp/ccliuxXB.s:474    .text:0000000000000230 .L0 
     /tmp/ccliuxXB.s:476    .text:0000000000000234 .L0 
     /tmp/ccliuxXB.s:477    .text:0000000000000234 .L0 
     /tmp/ccliuxXB.s:479    .text:0000000000000238 .L0 
     /tmp/ccliuxXB.s:482    .text:000000000000023c .L0 
     /tmp/ccliuxXB.s:484    .text:0000000000000240 .L0 
     /tmp/ccliuxXB.s:488    .text:0000000000000244 .L0 
     /tmp/ccliuxXB.s:490    .text:0000000000000244 .L0 
     /tmp/ccliuxXB.s:492    .text:000000000000024c .L0 
     /tmp/ccliuxXB.s:498    .text:000000000000024c _ZN13SyncSemaphore7tryWaitEv
     /tmp/ccliuxXB.s:501    .text:000000000000024c .L0 
     /tmp/ccliuxXB.s:503    .text:000000000000024c .L0 
     /tmp/ccliuxXB.s:504    .text:0000000000000250 .L0 
     /tmp/ccliuxXB.s:506    .text:0000000000000254 .L0 
     /tmp/ccliuxXB.s:508    .text:0000000000000258 .L0 
     /tmp/ccliuxXB.s:510    .text:0000000000000258 .L0 
     /tmp/ccliuxXB.s:511    .text:0000000000000258 .L0 
     /tmp/ccliuxXB.s:513    .text:000000000000025c .L0 
     /tmp/ccliuxXB.s:515    .text:0000000000000260 .L0 
     /tmp/ccliuxXB.s:516    .text:0000000000000260 .L0 
     /tmp/ccliuxXB.s:518    .text:0000000000000264 .L0 
     /tmp/ccliuxXB.s:521    .text:000000000000026c .L0 
     /tmp/ccliuxXB.s:523    .text:0000000000000270 .L0 
     /tmp/ccliuxXB.s:529    .text:0000000000000278 .L0 
     /tmp/ccliuxXB.s:532    .text:0000000000000280 .L0 
     /tmp/ccliuxXB.s:533    .text:0000000000000280 .L0 
     /tmp/ccliuxXB.s:539    .text:0000000000000288 .L0 
     /tmp/ccliuxXB.s:542    .text:0000000000000290 .L0 
     /tmp/ccliuxXB.s:543    .text:0000000000000290 .L0 
     /tmp/ccliuxXB.s:549    .text:0000000000000298 .L0 
     /tmp/ccliuxXB.s:553    .text:000000000000029c .L0 
     /tmp/ccliuxXB.s:554    .text:00000000000002a0 .L0 
     /tmp/ccliuxXB.s:555    .text:00000000000002a0 .L0 
     /tmp/ccliuxXB.s:557    .text:00000000000002a4 .L0 
     /tmp/ccliuxXB.s:559    .text:00000000000002a8 .L0 
     /tmp/ccliuxXB.s:566    .text:00000000000002a8 .L0 
     /tmp/ccliuxXB.s:128    .text:000000000000009c .L0 
     /tmp/ccliuxXB.s:159    .text:00000000000000cc .L0 
     /tmp/ccliuxXB.s:193    .text:0000000000000104 .L7
     /tmp/ccliuxXB.s:124    .text:000000000000009c .L14
     /tmp/ccliuxXB.s:185    .text:00000000000000f8 .L5
     /tmp/ccliuxXB.s:207    .text:000000000000010c .L9
     /tmp/ccliuxXB.s:107    .text:0000000000000084 .L4
     /tmp/ccliuxXB.s:153    .text:00000000000000cc .L6
     /tmp/ccliuxXB.s:338    .text:00000000000001a8 .L19
     /tmp/ccliuxXB.s:251    .text:000000000000013c .L26
GAS LISTING /tmp/ccliuxXB.s 			page 19


     /tmp/ccliuxXB.s:333    .text:00000000000001a0 .L21
     /tmp/ccliuxXB.s:323    .text:0000000000000198 .L27
     /tmp/ccliuxXB.s:281    .text:0000000000000164 .L18
     /tmp/ccliuxXB.s:288    .text:0000000000000170 .L17
     /tmp/ccliuxXB.s:446    .text:0000000000000220 .L32
     /tmp/ccliuxXB.s:416    .text:0000000000000200 .L31
     /tmp/ccliuxXB.s:461    .text:0000000000000228 .L33
     /tmp/ccliuxXB.s:487    .text:0000000000000244 .L34
     /tmp/ccliuxXB.s:393    .text:00000000000001e4 .L30
     /tmp/ccliuxXB.s:387    .text:00000000000001e0 .L39
     /tmp/ccliuxXB.s:470    .text:000000000000022c .L29
     /tmp/ccliuxXB.s:547    .text:0000000000000298 .L43
     /tmp/ccliuxXB.s:527    .text:0000000000000278 .L46
     /tmp/ccliuxXB.s:537    .text:0000000000000288 .L47
     /tmp/ccliuxXB.s:551    .text:000000000000029c .L41
     /tmp/ccliuxXB.s:1904   .debug_abbrev:0000000000000000 .Ldebug_abbrev0
     /tmp/ccliuxXB.s:3591   .debug_str:000000000000064e .LASF113
     /tmp/ccliuxXB.s:3593   .debug_str:0000000000000712 .LASF114
     /tmp/ccliuxXB.s:3479   .debug_str:0000000000000343 .LASF115
     /tmp/ccliuxXB.s:5      .text:0000000000000000 .Ltext0
     /tmp/ccliuxXB.s:562    .text:00000000000002a8 .Letext0
     /tmp/ccliuxXB.s:3377   .debug_line:0000000000000000 .Ldebug_line0
     /tmp/ccliuxXB.s:3525   .debug_str:0000000000000475 .LASF0
     /tmp/ccliuxXB.s:3539   .debug_str:00000000000004e3 .LASF1
     /tmp/ccliuxXB.s:3507   .debug_str:0000000000000402 .LASF2
     /tmp/ccliuxXB.s:3477   .debug_str:000000000000033c .LASF4
     /tmp/ccliuxXB.s:3575   .debug_str:00000000000005c7 .LASF3
     /tmp/ccliuxXB.s:3403   .debug_str:00000000000000c7 .LASF5
     /tmp/ccliuxXB.s:3541   .debug_str:00000000000004f6 .LASF6
     /tmp/ccliuxXB.s:3523   .debug_str:0000000000000462 .LASF7
     /tmp/ccliuxXB.s:3605   .debug_str:0000000000000785 .LASF8
     /tmp/ccliuxXB.s:3461   .debug_str:0000000000000292 .LASF9
     /tmp/ccliuxXB.s:3551   .debug_str:0000000000000541 .LASF10
     /tmp/ccliuxXB.s:3597   .debug_str:0000000000000731 .LASF11
     /tmp/ccliuxXB.s:3407   .debug_str:00000000000000d9 .LASF12
     /tmp/ccliuxXB.s:3387   .debug_str:0000000000000047 .LASF13
     /tmp/ccliuxXB.s:3419   .debug_str:000000000000013e .LASF14
     /tmp/ccliuxXB.s:3567   .debug_str:0000000000000599 .LASF15
     /tmp/ccliuxXB.s:3435   .debug_str:00000000000001d1 .LASF16
     /tmp/ccliuxXB.s:3549   .debug_str:0000000000000537 .LASF17
     /tmp/ccliuxXB.s:3457   .debug_str:0000000000000279 .LASF75
     /tmp/ccliuxXB.s:3471   .debug_str:00000000000002fb .LASF116
     /tmp/ccliuxXB.s:3415   .debug_str:000000000000010f .LASF117
     /tmp/ccliuxXB.s:3499   .debug_str:00000000000003d6 .LASF18
     /tmp/ccliuxXB.s:3599   .debug_str:0000000000000740 .LASF21
     /tmp/ccliuxXB.s:3563   .debug_str:000000000000057d .LASF19
     /tmp/ccliuxXB.s:3627   .debug_str:000000000000081f .LASF20
     /tmp/ccliuxXB.s:3517   .debug_str:0000000000000434 .LASF81
     /tmp/ccliuxXB.s:3439   .debug_str:00000000000001fb .LASF22
     /tmp/ccliuxXB.s:3503   .debug_str:00000000000003f7 .LASF23
     /tmp/ccliuxXB.s:3475   .debug_str:0000000000000337 .LASF24
     /tmp/ccliuxXB.s:3583   .debug_str:0000000000000620 .LASF26
     /tmp/ccliuxXB.s:3565   .debug_str:0000000000000582 .LASF31
     /tmp/ccliuxXB.s:3519   .debug_str:0000000000000453 .LASF118
     /tmp/ccliuxXB.s:3467   .debug_str:00000000000002cb .LASF119
     /tmp/ccliuxXB.s:3589   .debug_str:0000000000000645 .LASF25
     /tmp/ccliuxXB.s:3443   .debug_str:000000000000021c .LASF27
GAS LISTING /tmp/ccliuxXB.s 			page 20


     /tmp/ccliuxXB.s:3459   .debug_str:000000000000028a .LASF28
     /tmp/ccliuxXB.s:3441   .debug_str:0000000000000200 .LASF29
     /tmp/ccliuxXB.s:3511   .debug_str:000000000000041c .LASF30
     /tmp/ccliuxXB.s:3385   .debug_str:0000000000000029 .LASF32
     /tmp/ccliuxXB.s:3413   .debug_str:0000000000000105 .LASF33
     /tmp/ccliuxXB.s:3491   .debug_str:000000000000038f .LASF34
     /tmp/ccliuxXB.s:3533   .debug_str:00000000000004a5 .LASF35
     /tmp/ccliuxXB.s:3401   .debug_str:00000000000000aa .LASF36
     /tmp/ccliuxXB.s:3495   .debug_str:00000000000003bf .LASF37
     /tmp/ccliuxXB.s:3621   .debug_str:00000000000007f1 .LASF38
     /tmp/ccliuxXB.s:3393   .debug_str:000000000000007d .LASF39
     /tmp/ccliuxXB.s:3445   .debug_str:0000000000000239 .LASF40
     /tmp/ccliuxXB.s:3557   .debug_str:0000000000000567 .LASF41
     /tmp/ccliuxXB.s:3543   .debug_str:0000000000000509 .LASF42
     /tmp/ccliuxXB.s:3427   .debug_str:0000000000000194 .LASF43
     /tmp/ccliuxXB.s:3509   .debug_str:0000000000000410 .LASF44
     /tmp/ccliuxXB.s:3629   .debug_str:0000000000000824 .LASF45
     /tmp/ccliuxXB.s:3391   .debug_str:0000000000000073 .LASF46
     /tmp/ccliuxXB.s:3493   .debug_str:00000000000003aa .LASF47
     /tmp/ccliuxXB.s:3569   .debug_str:00000000000005af .LASF48
     /tmp/ccliuxXB.s:3601   .debug_str:0000000000000745 .LASF49
     /tmp/ccliuxXB.s:3395   .debug_str:0000000000000085 .LASF50
     /tmp/ccliuxXB.s:3433   .debug_str:00000000000001bf .LASF51
     /tmp/ccliuxXB.s:3585   .debug_str:0000000000000633 .LASF52
     /tmp/ccliuxXB.s:3449   .debug_str:0000000000000246 .LASF53
     /tmp/ccliuxXB.s:3429   .debug_str:00000000000001ab .LASF54
     /tmp/ccliuxXB.s:3465   .debug_str:00000000000002b4 .LASF55
     /tmp/ccliuxXB.s:3397   .debug_str:000000000000008c .LASF56
     /tmp/ccliuxXB.s:3529   .debug_str:000000000000048b .LASF57
     /tmp/ccliuxXB.s:3455   .debug_str:000000000000026f .LASF58
     /tmp/ccliuxXB.s:3607   .debug_str:0000000000000795 .LASF59
     /tmp/ccliuxXB.s:3409   .debug_str:00000000000000e9 .LASF60
     /tmp/ccliuxXB.s:3579   .debug_str:00000000000005e9 .LASF61
     /tmp/ccliuxXB.s:3619   .debug_str:00000000000007e5 .LASF62
     /tmp/ccliuxXB.s:3501   .debug_str:00000000000003e0 .LASF63
     /tmp/ccliuxXB.s:3489   .debug_str:0000000000000382 .LASF64
     /tmp/ccliuxXB.s:3537   .debug_str:00000000000004c3 .LASF65
     /tmp/ccliuxXB.s:3561   .debug_str:0000000000000578 .LASF120
     /tmp/ccliuxXB.s:3487   .debug_str:0000000000000377 .LASF66
     /tmp/ccliuxXB.s:3545   .debug_str:0000000000000514 .LASF67
     /tmp/ccliuxXB.s:3505   .debug_str:00000000000003fc .LASF68
     /tmp/ccliuxXB.s:3553   .debug_str:0000000000000550 .LASF121
     /tmp/ccliuxXB.s:3447   .debug_str:000000000000023e .LASF122
     /tmp/ccliuxXB.s:3463   .debug_str:00000000000002a0 .LASF123
     /tmp/ccliuxXB.s:3483   .debug_str:000000000000036a .LASF69
     /tmp/ccliuxXB.s:3531   .debug_str:000000000000049f .LASF70
     /tmp/ccliuxXB.s:3485   .debug_str:000000000000036f .LASF71
     /tmp/ccliuxXB.s:3481   .debug_str:0000000000000361 .LASF72
     /tmp/ccliuxXB.s:3379   .debug_str:0000000000000000 .LASF73
     /tmp/ccliuxXB.s:3547   .debug_str:0000000000000532 .LASF74
     /tmp/ccliuxXB.s:3615   .debug_str:00000000000007c7 .LASF76
     /tmp/ccliuxXB.s:3381   .debug_str:0000000000000008 .LASF77
     /tmp/ccliuxXB.s:3595   .debug_str:0000000000000728 .LASF78
     /tmp/ccliuxXB.s:3631   .debug_str:000000000000083b .LASF79
     /tmp/ccliuxXB.s:3497   .debug_str:00000000000003c8 .LASF83
     /tmp/ccliuxXB.s:3469   .debug_str:00000000000002e2 .LASF85
     /tmp/ccliuxXB.s:3611   .debug_str:00000000000007b1 .LASF80
GAS LISTING /tmp/ccliuxXB.s 			page 21


     /tmp/ccliuxXB.s:3473   .debug_str:000000000000030f .LASF82
     /tmp/ccliuxXB.s:3527   .debug_str:0000000000000482 .LASF84
     /tmp/ccliuxXB.s:3451   .debug_str:0000000000000257 .LASF86
     /tmp/ccliuxXB.s:3405   .debug_str:00000000000000ce .LASF124
     /tmp/ccliuxXB.s:3453   .debug_str:000000000000026a .LASF87
     /tmp/ccliuxXB.s:3625   .debug_str:0000000000000811 .LASF88
     /tmp/ccliuxXB.s:3431   .debug_str:00000000000001b6 .LASF89
     /tmp/ccliuxXB.s:3587   .debug_str:0000000000000639 .LASF90
     /tmp/ccliuxXB.s:3513   .debug_str:0000000000000428 .LASF91
     /tmp/ccliuxXB.s:3617   .debug_str:00000000000007ce .LASF92
     /tmp/ccliuxXB.s:3437   .debug_str:00000000000001e7 .LASF93
     /tmp/ccliuxXB.s:3603   .debug_str:000000000000075b .LASF94
     /tmp/ccliuxXB.s:3521   .debug_str:000000000000045d .LASF95
     /tmp/ccliuxXB.s:3383   .debug_str:000000000000000f .LASF96
     /tmp/ccliuxXB.s:3571   .debug_str:00000000000005ba .LASF97
     /tmp/ccliuxXB.s:3389   .debug_str:0000000000000057 .LASF98
     /tmp/ccliuxXB.s:3609   .debug_str:00000000000007ab .LASF99
     /tmp/ccliuxXB.s:3421   .debug_str:000000000000014a .LASF100
     /tmp/ccliuxXB.s:3613   .debug_str:00000000000007bf .LASF101
     /tmp/ccliuxXB.s:3581   .debug_str:0000000000000603 .LASF102
     /tmp/ccliuxXB.s:3555   .debug_str:0000000000000562 .LASF103
     /tmp/ccliuxXB.s:3425   .debug_str:0000000000000175 .LASF105
     /tmp/ccliuxXB.s:3559   .debug_str:0000000000000573 .LASF104
     /tmp/ccliuxXB.s:3535   .debug_str:00000000000004b0 .LASF106
     /tmp/ccliuxXB.s:499    .text:000000000000024c .LFB33
     /tmp/ccliuxXB.s:560    .text:00000000000002a8 .LFE33
     /tmp/ccliuxXB.s:2919   .debug_loc:0000000000000000 .LLST28
     /tmp/ccliuxXB.s:358    .text:00000000000001b0 .LFB32
     /tmp/ccliuxXB.s:493    .text:000000000000024c .LFE32
     /tmp/ccliuxXB.s:2966   .debug_loc:00000000000000b4 .LLST20
     /tmp/ccliuxXB.s:3345   .debug_ranges:0000000000000000 .Ldebug_ranges0
     /tmp/ccliuxXB.s:3003   .debug_loc:000000000000014f .LLST21
     /tmp/ccliuxXB.s:389    .text:00000000000001e0 .LBB59
     /tmp/ccliuxXB.s:3010   .debug_loc:0000000000000172 .LLST22
     /tmp/ccliuxXB.s:3025   .debug_loc:00000000000001ac .LLST23
     /tmp/ccliuxXB.s:3036   .debug_loc:00000000000001e2 .LLST24
     /tmp/ccliuxXB.s:399    .text:00000000000001f0 .LVL38
     /tmp/ccliuxXB.s:403    .text:00000000000001f0 .LBB62
     /tmp/ccliuxXB.s:410    .text:00000000000001f4 .LBE62
     /tmp/ccliuxXB.s:3043   .debug_loc:0000000000000205 .LLST25
     /tmp/ccliuxXB.s:3051   .debug_loc:0000000000000229 .LLST26
     /tmp/ccliuxXB.s:415    .text:0000000000000200 .LVL40
     /tmp/ccliuxXB.s:420    .text:0000000000000200 .LBB65
     /tmp/ccliuxXB.s:430    .text:000000000000020c .LBE65
     /tmp/ccliuxXB.s:3058   .debug_loc:000000000000024c .LLST27
     /tmp/ccliuxXB.s:223    .text:0000000000000114 .LFB31
     /tmp/ccliuxXB.s:352    .text:00000000000001b0 .LFE31
     /tmp/ccliuxXB.s:3073   .debug_loc:0000000000000286 .LLST13
     /tmp/ccliuxXB.s:3114   .debug_loc:0000000000000334 .LLST14
     /tmp/ccliuxXB.s:267    .text:0000000000000150 .LBB49
     /tmp/ccliuxXB.s:3121   .debug_loc:0000000000000357 .LLST15
     /tmp/ccliuxXB.s:3151   .debug_loc:00000000000003be .LLST16
     /tmp/ccliuxXB.s:3162   .debug_loc:00000000000003f4 .LLST17
     /tmp/ccliuxXB.s:287    .text:0000000000000170 .LVL27
     /tmp/ccliuxXB.s:292    .text:0000000000000170 .LBB52
     /tmp/ccliuxXB.s:299    .text:0000000000000174 .LBE52
     /tmp/ccliuxXB.s:3169   .debug_loc:0000000000000417 .LLST18
GAS LISTING /tmp/ccliuxXB.s 			page 22


     /tmp/ccliuxXB.s:3177   .debug_loc:000000000000043b .LLST19
     /tmp/ccliuxXB.s:304    .text:0000000000000180 .LVL29
     /tmp/ccliuxXB.s:71     .text:0000000000000048 .LFB30
     /tmp/ccliuxXB.s:217    .text:0000000000000114 .LFE30
     /tmp/ccliuxXB.s:3184   .debug_loc:000000000000045e .LLST4
     /tmp/ccliuxXB.s:131    .text:00000000000000a8 .LBB39
     /tmp/ccliuxXB.s:3221   .debug_loc:00000000000004f9 .LLST5
     /tmp/ccliuxXB.s:3232   .debug_loc:000000000000052f .LLST6
     /tmp/ccliuxXB.s:3247   .debug_loc:0000000000000569 .LLST7
     /tmp/ccliuxXB.s:137    .text:00000000000000b4 .LBB41
     /tmp/ccliuxXB.s:144    .text:00000000000000bc .LBE41
     /tmp/ccliuxXB.s:3258   .debug_loc:000000000000059f .LLST8
     /tmp/ccliuxXB.s:3266   .debug_loc:00000000000005c3 .LLST9
     /tmp/ccliuxXB.s:3273   .debug_loc:00000000000005e6 .LLST10
     /tmp/ccliuxXB.s:136    .text:00000000000000b4 .LVL10
     /tmp/ccliuxXB.s:162    .text:00000000000000d8 .LBB44
     /tmp/ccliuxXB.s:171    .text:00000000000000e0 .LBE44
     /tmp/ccliuxXB.s:3280   .debug_loc:0000000000000609 .LLST11
     /tmp/ccliuxXB.s:3288   .debug_loc:000000000000062d .LLST12
     /tmp/ccliuxXB.s:175    .text:00000000000000e8 .LVL15
     /tmp/ccliuxXB.s:10     .text:0000000000000000 .LFB29
     /tmp/ccliuxXB.s:65     .text:0000000000000048 .LFE29
     /tmp/ccliuxXB.s:3295   .debug_loc:0000000000000650 .LLST0
     /tmp/ccliuxXB.s:32     .text:0000000000000024 .LBB35
     /tmp/ccliuxXB.s:52     .text:0000000000000034 .LBE35
     /tmp/ccliuxXB.s:3309   .debug_loc:0000000000000689 .LLST1
     /tmp/ccliuxXB.s:3316   .debug_loc:00000000000006ac .LLST2
     /tmp/ccliuxXB.s:34     .text:0000000000000024 .LBB37
     /tmp/ccliuxXB.s:42     .text:000000000000002c .LBE37
     /tmp/ccliuxXB.s:3323   .debug_loc:00000000000006cf .LLST3
     /tmp/ccliuxXB.s:31     .text:0000000000000024 .LVL2
     /tmp/ccliuxXB.s:3417   .debug_str:0000000000000127 .LASF107
     /tmp/ccliuxXB.s:3623   .debug_str:000000000000080b .LASF108
     /tmp/ccliuxXB.s:3515   .debug_str:000000000000042d .LASF109
     /tmp/ccliuxXB.s:3577   .debug_str:00000000000005d9 .LASF111
     /tmp/ccliuxXB.s:3573   .debug_str:00000000000005c1 .LASF110
     /tmp/ccliuxXB.s:3411   .debug_str:00000000000000f8 .LASF112
     /tmp/ccliuxXB.s:3399   .debug_str:0000000000000095 .LASF125
     /tmp/ccliuxXB.s:3423   .debug_str:0000000000000165 .LASF126
     /tmp/ccliuxXB.s:502    .text:000000000000024c .LVL49
     /tmp/ccliuxXB.s:524    .text:0000000000000274 .LVL50
     /tmp/ccliuxXB.s:526    .text:0000000000000278 .LVL51
     /tmp/ccliuxXB.s:534    .text:0000000000000284 .LVL52
     /tmp/ccliuxXB.s:536    .text:0000000000000288 .LVL53
     /tmp/ccliuxXB.s:544    .text:0000000000000294 .LVL54
     /tmp/ccliuxXB.s:546    .text:0000000000000298 .LVL55
     /tmp/ccliuxXB.s:550    .text:000000000000029c .LVL56
     /tmp/ccliuxXB.s:361    .text:00000000000001b0 .LVL35
     /tmp/ccliuxXB.s:386    .text:00000000000001e0 .LVL36
     /tmp/ccliuxXB.s:445    .text:0000000000000220 .LVL43
     /tmp/ccliuxXB.s:457    .text:0000000000000224 .LVL44
     /tmp/ccliuxXB.s:460    .text:0000000000000228 .LVL45
     /tmp/ccliuxXB.s:480    .text:0000000000000238 .LVL47
     /tmp/ccliuxXB.s:486    .text:0000000000000244 .LVL48
     /tmp/ccliuxXB.s:435    .text:0000000000000210 .LVL42
     /tmp/ccliuxXB.s:396    .text:00000000000001e8 .LVL37
     /tmp/ccliuxXB.s:408    .text:00000000000001f4 .LVL39
GAS LISTING /tmp/ccliuxXB.s 			page 23


     /tmp/ccliuxXB.s:428    .text:000000000000020c .LVL41
     /tmp/ccliuxXB.s:469    .text:000000000000022c .LVL46
     /tmp/ccliuxXB.s:226    .text:0000000000000114 .LVL20
     /tmp/ccliuxXB.s:247    .text:0000000000000138 .LVL21
     /tmp/ccliuxXB.s:250    .text:000000000000013c .LVL22
     /tmp/ccliuxXB.s:271    .text:0000000000000154 .LVL24
     /tmp/ccliuxXB.s:322    .text:0000000000000198 .LVL31
     /tmp/ccliuxXB.s:337    .text:00000000000001a8 .LVL33
     /tmp/ccliuxXB.s:349    .text:00000000000001ac .LVL34
     /tmp/ccliuxXB.s:318    .text:0000000000000190 .LVL30
     /tmp/ccliuxXB.s:266    .text:0000000000000150 .LVL23
     /tmp/ccliuxXB.s:274    .text:0000000000000158 .LVL25
     /tmp/ccliuxXB.s:332    .text:00000000000001a0 .LVL32
     /tmp/ccliuxXB.s:284    .text:0000000000000168 .LVL26
     /tmp/ccliuxXB.s:297    .text:0000000000000174 .LVL28
     /tmp/ccliuxXB.s:74     .text:0000000000000048 .LVL5
     /tmp/ccliuxXB.s:106    .text:0000000000000084 .LVL6
     /tmp/ccliuxXB.s:117    .text:0000000000000090 .LVL7
     /tmp/ccliuxXB.s:123    .text:000000000000009c .LVL8
     /tmp/ccliuxXB.s:192    .text:0000000000000104 .LVL17
     /tmp/ccliuxXB.s:203    .text:0000000000000108 .LVL18
     /tmp/ccliuxXB.s:206    .text:000000000000010c .LVL19
     /tmp/ccliuxXB.s:130    .text:00000000000000a8 .LVL9
     /tmp/ccliuxXB.s:154    .text:00000000000000cc .LVL12
     /tmp/ccliuxXB.s:184    .text:00000000000000f8 .LVL16
     /tmp/ccliuxXB.s:142    .text:00000000000000bc .LVL11
     /tmp/ccliuxXB.s:161    .text:00000000000000d8 .LVL13
     /tmp/ccliuxXB.s:169    .text:00000000000000e0 .LVL14
     /tmp/ccliuxXB.s:14     .text:0000000000000000 .LVL0
     /tmp/ccliuxXB.s:29     .text:000000000000001c .LVL1
     /tmp/ccliuxXB.s:50     .text:0000000000000034 .LVL4
     /tmp/ccliuxXB.s:40     .text:000000000000002c .LVL3
     /tmp/ccliuxXB.s:567    .debug_info:0000000000000000 .Ldebug_info0
     /tmp/ccliuxXB.s:156    .text:00000000000000cc .LBE39
     /tmp/ccliuxXB.s:186    .text:00000000000000f8 .LBB46
     /tmp/ccliuxXB.s:200    .text:0000000000000104 .LBE46
     /tmp/ccliuxXB.s:264    .text:0000000000000150 .LBB48
     /tmp/ccliuxXB.s:305    .text:0000000000000180 .LBE48
     /tmp/ccliuxXB.s:326    .text:0000000000000198 .LBB55
     /tmp/ccliuxXB.s:345    .text:00000000000001a8 .LBE55
     /tmp/ccliuxXB.s:290    .text:0000000000000170 .LBE49
     /tmp/ccliuxXB.s:327    .text:0000000000000198 .LBB54
     /tmp/ccliuxXB.s:344    .text:00000000000001a8 .LBE54
     /tmp/ccliuxXB.s:388    .text:00000000000001e0 .LBB58
     /tmp/ccliuxXB.s:417    .text:0000000000000200 .LBE58
     /tmp/ccliuxXB.s:433    .text:0000000000000210 .LBB67
     /tmp/ccliuxXB.s:454    .text:0000000000000220 .LBE67
     /tmp/ccliuxXB.s:401    .text:00000000000001f0 .LBE59
     /tmp/ccliuxXB.s:436    .text:0000000000000210 .LBB64
     /tmp/ccliuxXB.s:453    .text:0000000000000220 .LBE64

UNDEFINED SYMBOLS
_Znwm
_ZN3TCB7runningE
_Z15thread_dispatchv
_ZdlPv
_ZN9Scheduler3putEP3TCB
GAS LISTING /tmp/ccliuxXB.s 			page 24


