GAS LISTING /tmp/cc6nHVmR.s 			page 1


   1              		.file	"syscall_cpp.cpp"
   2              		.option pic
   3              		.option norelax
   4              		.text
   5              	.Ltext0:
   6              		.section	.text._ZN6Thread3runEv,"axG",@progbits,_ZN6Thread3runEv,comdat
   7              		.align	2
   8              		.weak	_ZN6Thread3runEv
  10              	_ZN6Thread3runEv:
  11              	.LFB31:
  12              		.file 1 "src/../h/syscall_cpp.hpp"
   1:src/../h/syscall_cpp.hpp **** 
   2:src/../h/syscall_cpp.hpp **** #ifndef PROJECT_V1_1_SYSCALL_CPP_HPP
   3:src/../h/syscall_cpp.hpp **** #define PROJECT_V1_1_SYSCALL_CPP_HPP
   4:src/../h/syscall_cpp.hpp **** 
   5:src/../h/syscall_cpp.hpp **** #include "syscall_c.hpp"
   6:src/../h/syscall_cpp.hpp **** 
   7:src/../h/syscall_cpp.hpp **** void* operator new(size_t size);
   8:src/../h/syscall_cpp.hpp **** void operator delete(void* p) noexcept;
   9:src/../h/syscall_cpp.hpp **** 
  10:src/../h/syscall_cpp.hpp **** class Thread {
  11:src/../h/syscall_cpp.hpp **** public:
  12:src/../h/syscall_cpp.hpp ****     Thread (void (*body)(void*), void* arg);
  13:src/../h/syscall_cpp.hpp ****     virtual ~Thread ();
  14:src/../h/syscall_cpp.hpp **** 
  15:src/../h/syscall_cpp.hpp ****     int start ();
  16:src/../h/syscall_cpp.hpp **** 
  17:src/../h/syscall_cpp.hpp ****     static void dispatch ();
  18:src/../h/syscall_cpp.hpp **** 
  19:src/../h/syscall_cpp.hpp ****     static int sleep (time_t time);
  20:src/../h/syscall_cpp.hpp **** 
  21:src/../h/syscall_cpp.hpp ****     // mod
  22:src/../h/syscall_cpp.hpp ****     int getThreadId() { return myHandle->getId(); }
  23:src/../h/syscall_cpp.hpp ****     static void pair(Thread* t1, Thread* t2);
  24:src/../h/syscall_cpp.hpp ****     void synchronize();
  25:src/../h/syscall_cpp.hpp **** 
  26:src/../h/syscall_cpp.hpp ****     bool isFinishedThread(){ return myHandle->isFinished(); };
  27:src/../h/syscall_cpp.hpp **** 
  28:src/../h/syscall_cpp.hpp **** protected:
  29:src/../h/syscall_cpp.hpp ****     Thread ();
  30:src/../h/syscall_cpp.hpp ****     virtual void run() {};
  13              		.loc 1 30 18
  14              		.cfi_startproc
  15              	.LVL0:
  16 0000 130101FF 		addi	sp,sp,-16
  17              		.cfi_def_cfa_offset 16
  18 0004 23348100 		sd	s0,8(sp)
  19              		.cfi_offset 8, -8
  20 0008 13040101 		addi	s0,sp,16
  21              		.cfi_def_cfa 8, 0
  22              		.loc 1 30 25 is_stmt 0
  23 000c 03348100 		ld	s0,8(sp)
  24              		.cfi_restore 8
  25              		.cfi_def_cfa 2, 16
  26 0010 13010101 		addi	sp,sp,16
  27              		.cfi_def_cfa_offset 0
  28 0014 67800000 		jr	ra
GAS LISTING /tmp/cc6nHVmR.s 			page 2


  29              		.cfi_endproc
  30              	.LFE31:
  32              		.section	.text._ZN6Thread7wrapperEPv,"axG",@progbits,_ZN6Thread7wrapperEPv,comdat
  33              		.align	2
  34              		.weak	_ZN6Thread7wrapperEPv
  36              	_ZN6Thread7wrapperEPv:
  37              	.LFB32:
  31:src/../h/syscall_cpp.hpp **** 
  32:src/../h/syscall_cpp.hpp **** private:
  33:src/../h/syscall_cpp.hpp ****     thread_t myHandle;
  34:src/../h/syscall_cpp.hpp ****     void (*body)(void*);
  35:src/../h/syscall_cpp.hpp ****     void* arg;
  36:src/../h/syscall_cpp.hpp **** 
  37:src/../h/syscall_cpp.hpp ****     static void wrapper(void *thread) {
  38              		.loc 1 37 17 is_stmt 1
  39              		.cfi_startproc
  40              	.LVL1:
  38:src/../h/syscall_cpp.hpp ****         if (thread != nullptr) {
  41              		.loc 1 38 9
  42 0000 63080502 		beqz	a0,.L6
  37:src/../h/syscall_cpp.hpp ****         if (thread != nullptr) {
  43              		.loc 1 37 17 is_stmt 0
  44 0004 130101FF 		addi	sp,sp,-16
  45              		.cfi_def_cfa_offset 16
  46 0008 23341100 		sd	ra,8(sp)
  47 000c 23308100 		sd	s0,0(sp)
  48              		.cfi_offset 1, -8
  49              		.cfi_offset 8, -16
  50 0010 13040101 		addi	s0,sp,16
  51              		.cfi_def_cfa 8, 0
  39:src/../h/syscall_cpp.hpp ****             ((Thread *) thread)->run();
  52              		.loc 1 39 13 is_stmt 1
  53              		.loc 1 39 38 is_stmt 0
  54 0014 83370500 		ld	a5,0(a0)
  55 0018 83B70701 		ld	a5,16(a5)
  56              		.loc 1 39 37
  57 001c E7800700 		jalr	a5
  58              	.LVL2:
  40:src/../h/syscall_cpp.hpp ****         }
  41:src/../h/syscall_cpp.hpp ****     }
  59              		.loc 1 41 5
  60 0020 83308100 		ld	ra,8(sp)
  61              		.cfi_restore 1
  62 0024 03340100 		ld	s0,0(sp)
  63              		.cfi_restore 8
  64              		.cfi_def_cfa 2, 16
  65 0028 13010101 		addi	sp,sp,16
  66              		.cfi_def_cfa_offset 0
  67 002c 67800000 		jr	ra
  68              	.LVL3:
  69              	.L6:
  70 0030 67800000 		ret
  71              		.cfi_endproc
  72              	.LFE32:
  74              		.text
  75              		.align	2
  76              		.globl	_ZN6ThreadD2Ev
GAS LISTING /tmp/cc6nHVmR.s 			page 3


  78              	_ZN6ThreadD2Ev:
  79              	.LFB38:
  80              		.file 2 "src/syscall_cpp.cpp"
   1:src/syscall_cpp.cpp **** 
   2:src/syscall_cpp.cpp **** #include "../h/syscall_cpp.hpp"
   3:src/syscall_cpp.cpp **** 
   4:src/syscall_cpp.cpp **** void Thread::dispatch() {
   5:src/syscall_cpp.cpp ****     thread_dispatch();
   6:src/syscall_cpp.cpp **** }
   7:src/syscall_cpp.cpp **** 
   8:src/syscall_cpp.cpp **** Thread::Thread(void (*body)(void *), void *arg) {
   9:src/syscall_cpp.cpp ****     thread_create(&myHandle, body, arg);
  10:src/syscall_cpp.cpp **** }
  11:src/syscall_cpp.cpp **** 
  12:src/syscall_cpp.cpp **** Thread::~Thread() {
  81              		.loc 2 12 1 is_stmt 1
  82              		.cfi_startproc
  83              	.LVL4:
  84 0000 130101FE 		addi	sp,sp,-32
  85              		.cfi_def_cfa_offset 32
  86 0004 233C1100 		sd	ra,24(sp)
  87 0008 23388100 		sd	s0,16(sp)
  88 000c 23349100 		sd	s1,8(sp)
  89              		.cfi_offset 1, -8
  90              		.cfi_offset 8, -16
  91              		.cfi_offset 9, -24
  92 0010 13040102 		addi	s0,sp,32
  93              		.cfi_def_cfa 8, 0
  94              	.LBB6:
  95              		.loc 2 12 17 is_stmt 0
  96 0014 97070000 		lla	a5,_ZTV6Thread+16
  96      93870700 
  97 001c 2330F500 		sd	a5,0(a0)
  13:src/syscall_cpp.cpp ****     delete myHandle;
  98              		.loc 2 13 5 is_stmt 1
  99              		.loc 2 13 12 is_stmt 0
 100 0020 83348500 		ld	s1,8(a0)
 101              		.loc 2 13 20
 102 0024 63800402 		beqz	s1,.L9
 103              	.LVL5:
 104              	.LBB7:
 105              	.LBB8:
 106              		.file 3 "src/../h/tcb.hpp"
   1:src/../h/tcb.hpp **** 
   2:src/../h/tcb.hpp **** #ifndef PROJECT_V1_1_TCB_HPP
   3:src/../h/tcb.hpp **** #define PROJECT_V1_1_TCB_HPP
   4:src/../h/tcb.hpp **** 
   5:src/../h/tcb.hpp **** #include "../lib/hw.h"
   6:src/../h/tcb.hpp **** #include "scheduler.hpp"
   7:src/../h/tcb.hpp **** #include "memoryAllocator.hpp"
   8:src/../h/tcb.hpp **** 
   9:src/../h/tcb.hpp **** 
  10:src/../h/tcb.hpp **** class TCB
  11:src/../h/tcb.hpp **** {
  12:src/../h/tcb.hpp **** public:
  13:src/../h/tcb.hpp ****     ~TCB() { delete[] stack; }
 107              		.loc 3 13 14 is_stmt 1
GAS LISTING /tmp/cc6nHVmR.s 			page 4


 108              		.loc 3 13 23 is_stmt 0
 109 0028 03B58400 		ld	a0,8(s1)
 110              	.LVL6:
 111              		.loc 3 13 28
 112 002c 63060500 		beqz	a0,.L11
 113              		.loc 3 13 23
 114 0030 97000000 		call	_ZdaPv@plt
 114      E7800000 
 115              	.LVL7:
 116              	.L11:
 117              	.LBE8:
 118              	.LBE7:
 119              		.loc 2 13 12
 120 0038 13850400 		mv	a0,s1
 121 003c 97000000 		call	_ZdlPv@plt
 121      E7800000 
 122              	.LVL8:
 123              	.L9:
 124              	.LBE6:
  14:src/syscall_cpp.cpp **** }
 125              		.loc 2 14 1
 126 0044 83308101 		ld	ra,24(sp)
 127              		.cfi_restore 1
 128 0048 03340101 		ld	s0,16(sp)
 129              		.cfi_restore 8
 130              		.cfi_def_cfa 2, 32
 131 004c 83348100 		ld	s1,8(sp)
 132              		.cfi_restore 9
 133 0050 13010102 		addi	sp,sp,32
 134              		.cfi_def_cfa_offset 0
 135 0054 67800000 		jr	ra
 136              		.cfi_endproc
 137              	.LFE38:
 139              		.globl	_ZN6ThreadD1Ev
 140              		.set	_ZN6ThreadD1Ev,_ZN6ThreadD2Ev
 141              		.align	2
 142              		.globl	_ZN6ThreadD0Ev
 144              	_ZN6ThreadD0Ev:
 145              	.LFB40:
  12:src/syscall_cpp.cpp ****     delete myHandle;
 146              		.loc 2 12 1 is_stmt 1
 147              		.cfi_startproc
 148              	.LVL9:
 149 0058 130101FE 		addi	sp,sp,-32
 150              		.cfi_def_cfa_offset 32
 151 005c 233C1100 		sd	ra,24(sp)
 152 0060 23388100 		sd	s0,16(sp)
 153 0064 23349100 		sd	s1,8(sp)
 154              		.cfi_offset 1, -8
 155              		.cfi_offset 8, -16
 156              		.cfi_offset 9, -24
 157 0068 13040102 		addi	s0,sp,32
 158              		.cfi_def_cfa 8, 0
 159 006c 93040500 		mv	s1,a0
 160              		.loc 2 14 1 is_stmt 0
 161 0070 97000000 		call	_ZN6ThreadD1Ev
 161      E7800000 
GAS LISTING /tmp/cc6nHVmR.s 			page 5


 162              	.LVL10:
 163 0078 13850400 		mv	a0,s1
 164 007c 97000000 		call	_ZdlPv@plt
 164      E7800000 
 165              	.LVL11:
 166 0084 83308101 		ld	ra,24(sp)
 167              		.cfi_restore 1
 168 0088 03340101 		ld	s0,16(sp)
 169              		.cfi_restore 8
 170              		.cfi_def_cfa 2, 32
 171 008c 83348100 		ld	s1,8(sp)
 172              		.cfi_restore 9
 173              	.LVL12:
 174 0090 13010102 		addi	sp,sp,32
 175              		.cfi_def_cfa_offset 0
 176 0094 67800000 		jr	ra
 177              		.cfi_endproc
 178              	.LFE40:
 180              		.align	2
 181              		.globl	_ZN9SemaphoreD2Ev
 183              	_ZN9SemaphoreD2Ev:
 184              	.LFB52:
  15:src/syscall_cpp.cpp **** 
  16:src/syscall_cpp.cpp **** int Thread::start() {
  17:src/syscall_cpp.cpp ****     thread_start(myHandle);
  18:src/syscall_cpp.cpp ****     return 0;
  19:src/syscall_cpp.cpp **** }
  20:src/syscall_cpp.cpp **** 
  21:src/syscall_cpp.cpp **** Thread::Thread() {
  22:src/syscall_cpp.cpp ****     thread_init(&myHandle, wrapper, this);
  23:src/syscall_cpp.cpp **** }
  24:src/syscall_cpp.cpp **** 
  25:src/syscall_cpp.cpp **** int Thread::sleep(time_t time) {
  26:src/syscall_cpp.cpp ****     return 0;
  27:src/syscall_cpp.cpp **** }
  28:src/syscall_cpp.cpp **** 
  29:src/syscall_cpp.cpp **** void Thread::synchronize() {
  30:src/syscall_cpp.cpp ****     ::synchronize(myHandle);
  31:src/syscall_cpp.cpp **** }
  32:src/syscall_cpp.cpp **** 
  33:src/syscall_cpp.cpp **** void Thread::pair(Thread *t1, Thread* t2) {
  34:src/syscall_cpp.cpp ****     ::pair(t1->myHandle, t2->myHandle);
  35:src/syscall_cpp.cpp **** }
  36:src/syscall_cpp.cpp **** 
  37:src/syscall_cpp.cpp **** Semaphore::Semaphore(unsigned int init) {
  38:src/syscall_cpp.cpp ****     sem_open(&myHandle, (int)init);
  39:src/syscall_cpp.cpp **** }
  40:src/syscall_cpp.cpp **** 
  41:src/syscall_cpp.cpp **** Semaphore::~Semaphore() {
 185              		.loc 2 41 1 is_stmt 1
 186              		.cfi_startproc
 187              		.cfi_personality 0x9b,DW.ref.__gxx_personality_v0
 188              		.cfi_lsda 0x1b,.LLSDA52
 189              	.LVL13:
 190 0098 130101FE 		addi	sp,sp,-32
 191              		.cfi_def_cfa_offset 32
 192 009c 233C1100 		sd	ra,24(sp)
GAS LISTING /tmp/cc6nHVmR.s 			page 6


 193 00a0 23388100 		sd	s0,16(sp)
 194 00a4 23349100 		sd	s1,8(sp)
 195              		.cfi_offset 1, -8
 196              		.cfi_offset 8, -16
 197              		.cfi_offset 9, -24
 198 00a8 13040102 		addi	s0,sp,32
 199              		.cfi_def_cfa 8, 0
 200 00ac 93040500 		mv	s1,a0
 201              	.LBB9:
 202              		.loc 2 41 23 is_stmt 0
 203 00b0 97070000 		lla	a5,_ZTV9Semaphore+16
 203      93870700 
 204 00b8 2330F500 		sd	a5,0(a0)
  42:src/syscall_cpp.cpp ****     sem_close(myHandle);
 205              		.loc 2 42 5 is_stmt 1
 206              		.loc 2 42 14 is_stmt 0
 207 00bc 03358500 		ld	a0,8(a0)
 208              	.LVL14:
 209 00c0 97000000 		call	_Z9sem_closeP13SyncSemaphore@plt
 209      E7800000 
 210              	.LVL15:
  43:src/syscall_cpp.cpp ****     delete myHandle;
 211              		.loc 2 43 5 is_stmt 1
 212              		.loc 2 43 12 is_stmt 0
 213 00c8 03B58400 		ld	a0,8(s1)
 214              		.loc 2 43 20
 215 00cc 63060500 		beqz	a0,.L15
 216              		.loc 2 43 12 discriminator 1
 217 00d0 97000000 		call	_ZdlPv@plt
 217      E7800000 
 218              	.LVL16:
 219              	.L15:
 220              	.LBE9:
  44:src/syscall_cpp.cpp **** }
 221              		.loc 2 44 1
 222 00d8 83308101 		ld	ra,24(sp)
 223              		.cfi_restore 1
 224 00dc 03340101 		ld	s0,16(sp)
 225              		.cfi_restore 8
 226              		.cfi_def_cfa 2, 32
 227 00e0 83348100 		ld	s1,8(sp)
 228              		.cfi_restore 9
 229              	.LVL17:
 230 00e4 13010102 		addi	sp,sp,32
 231              		.cfi_def_cfa_offset 0
 232 00e8 67800000 		jr	ra
 233              		.cfi_endproc
 234              	.LFE52:
 235              		.globl	__gxx_personality_v0
 236              		.section	.gcc_except_table,"a",@progbits
 237              	.LLSDA52:
 238 0000 FF       		.byte	0xff
 239 0001 FF       		.byte	0xff
 240 0002 03       		.byte	0x3
 241 0003 00       		.byte	0
 242              		.text
 244              		.globl	_ZN9SemaphoreD1Ev
GAS LISTING /tmp/cc6nHVmR.s 			page 7


 245              		.set	_ZN9SemaphoreD1Ev,_ZN9SemaphoreD2Ev
 246              		.align	2
 247              		.globl	_ZN9SemaphoreD0Ev
 249              	_ZN9SemaphoreD0Ev:
 250              	.LFB54:
  41:src/syscall_cpp.cpp ****     sem_close(myHandle);
 251              		.loc 2 41 1 is_stmt 1
 252              		.cfi_startproc
 253              	.LVL18:
 254 00ec 130101FE 		addi	sp,sp,-32
 255              		.cfi_def_cfa_offset 32
 256 00f0 233C1100 		sd	ra,24(sp)
 257 00f4 23388100 		sd	s0,16(sp)
 258 00f8 23349100 		sd	s1,8(sp)
 259              		.cfi_offset 1, -8
 260              		.cfi_offset 8, -16
 261              		.cfi_offset 9, -24
 262 00fc 13040102 		addi	s0,sp,32
 263              		.cfi_def_cfa 8, 0
 264 0100 93040500 		mv	s1,a0
 265              		.loc 2 44 1 is_stmt 0
 266 0104 97000000 		call	_ZN9SemaphoreD1Ev
 266      E7800000 
 267              	.LVL19:
 268 010c 13850400 		mv	a0,s1
 269 0110 97000000 		call	_ZdlPv@plt
 269      E7800000 
 270              	.LVL20:
 271 0118 83308101 		ld	ra,24(sp)
 272              		.cfi_restore 1
 273 011c 03340101 		ld	s0,16(sp)
 274              		.cfi_restore 8
 275              		.cfi_def_cfa 2, 32
 276 0120 83348100 		ld	s1,8(sp)
 277              		.cfi_restore 9
 278              	.LVL21:
 279 0124 13010102 		addi	sp,sp,32
 280              		.cfi_def_cfa_offset 0
 281 0128 67800000 		jr	ra
 282              		.cfi_endproc
 283              	.LFE54:
 285              		.align	2
 286              		.globl	_ZN6Thread8dispatchEv
 288              	_ZN6Thread8dispatchEv:
 289              	.LFB33:
   4:src/syscall_cpp.cpp ****     thread_dispatch();
 290              		.loc 2 4 25 is_stmt 1
 291              		.cfi_startproc
 292 012c 130101FF 		addi	sp,sp,-16
 293              		.cfi_def_cfa_offset 16
 294 0130 23341100 		sd	ra,8(sp)
 295 0134 23308100 		sd	s0,0(sp)
 296              		.cfi_offset 1, -8
 297              		.cfi_offset 8, -16
 298 0138 13040101 		addi	s0,sp,16
 299              		.cfi_def_cfa 8, 0
   5:src/syscall_cpp.cpp **** }
GAS LISTING /tmp/cc6nHVmR.s 			page 8


 300              		.loc 2 5 5
   5:src/syscall_cpp.cpp **** }
 301              		.loc 2 5 20 is_stmt 0
 302 013c 97000000 		call	_Z15thread_dispatchv@plt
 302      E7800000 
 303              	.LVL22:
   6:src/syscall_cpp.cpp **** 
 304              		.loc 2 6 1
 305 0144 83308100 		ld	ra,8(sp)
 306              		.cfi_restore 1
 307 0148 03340100 		ld	s0,0(sp)
 308              		.cfi_restore 8
 309              		.cfi_def_cfa 2, 16
 310 014c 13010101 		addi	sp,sp,16
 311              		.cfi_def_cfa_offset 0
 312 0150 67800000 		jr	ra
 313              		.cfi_endproc
 314              	.LFE33:
 316              		.align	2
 317              		.globl	_ZN6ThreadC2EPFvPvES0_
 319              	_ZN6ThreadC2EPFvPvES0_:
 320              	.LFB35:
   8:src/syscall_cpp.cpp ****     thread_create(&myHandle, body, arg);
 321              		.loc 2 8 1 is_stmt 1
 322              		.cfi_startproc
 323              	.LVL23:
 324 0154 130101FF 		addi	sp,sp,-16
 325              		.cfi_def_cfa_offset 16
 326 0158 23341100 		sd	ra,8(sp)
 327 015c 23308100 		sd	s0,0(sp)
 328              		.cfi_offset 1, -8
 329              		.cfi_offset 8, -16
 330 0160 13040101 		addi	s0,sp,16
 331              		.cfi_def_cfa 8, 0
 332              	.LBB10:
   8:src/syscall_cpp.cpp ****     thread_create(&myHandle, body, arg);
 333              		.loc 2 8 47 is_stmt 0
 334 0164 97070000 		lla	a5,_ZTV6Thread+16
 334      93870700 
 335 016c 2330F500 		sd	a5,0(a0)
   9:src/syscall_cpp.cpp **** }
 336              		.loc 2 9 5 is_stmt 1
   9:src/syscall_cpp.cpp **** }
 337              		.loc 2 9 18 is_stmt 0
 338 0170 13058500 		addi	a0,a0,8
 339              	.LVL24:
 340 0174 97000000 		call	_Z13thread_createPP3TCBPFvPvES2_@plt
 340      E7800000 
 341              	.LVL25:
 342              	.LBE10:
  10:src/syscall_cpp.cpp **** 
 343              		.loc 2 10 1
 344 017c 83308100 		ld	ra,8(sp)
 345              		.cfi_restore 1
 346 0180 03340100 		ld	s0,0(sp)
 347              		.cfi_restore 8
 348              		.cfi_def_cfa 2, 16
GAS LISTING /tmp/cc6nHVmR.s 			page 9


 349 0184 13010101 		addi	sp,sp,16
 350              		.cfi_def_cfa_offset 0
 351 0188 67800000 		jr	ra
 352              		.cfi_endproc
 353              	.LFE35:
 355              		.globl	_ZN6ThreadC1EPFvPvES0_
 356              		.set	_ZN6ThreadC1EPFvPvES0_,_ZN6ThreadC2EPFvPvES0_
 357              		.align	2
 358              		.globl	_ZN6Thread5startEv
 360              	_ZN6Thread5startEv:
 361              	.LFB41:
  16:src/syscall_cpp.cpp ****     thread_start(myHandle);
 362              		.loc 2 16 21 is_stmt 1
 363              		.cfi_startproc
 364              	.LVL26:
 365 018c 130101FF 		addi	sp,sp,-16
 366              		.cfi_def_cfa_offset 16
 367 0190 23341100 		sd	ra,8(sp)
 368 0194 23308100 		sd	s0,0(sp)
 369              		.cfi_offset 1, -8
 370              		.cfi_offset 8, -16
 371 0198 13040101 		addi	s0,sp,16
 372              		.cfi_def_cfa 8, 0
  17:src/syscall_cpp.cpp ****     return 0;
 373              		.loc 2 17 5
  17:src/syscall_cpp.cpp ****     return 0;
 374              		.loc 2 17 17 is_stmt 0
 375 019c 03358500 		ld	a0,8(a0)
 376              	.LVL27:
 377 01a0 97000000 		call	_Z12thread_startP3TCB@plt
 377      E7800000 
 378              	.LVL28:
  18:src/syscall_cpp.cpp **** }
 379              		.loc 2 18 5 is_stmt 1
  19:src/syscall_cpp.cpp **** 
 380              		.loc 2 19 1 is_stmt 0
 381 01a8 13050000 		li	a0,0
 382 01ac 83308100 		ld	ra,8(sp)
 383              		.cfi_restore 1
 384 01b0 03340100 		ld	s0,0(sp)
 385              		.cfi_restore 8
 386              		.cfi_def_cfa 2, 16
 387 01b4 13010101 		addi	sp,sp,16
 388              		.cfi_def_cfa_offset 0
 389 01b8 67800000 		jr	ra
 390              		.cfi_endproc
 391              	.LFE41:
 393              		.align	2
 394              		.globl	_ZN6ThreadC2Ev
 396              	_ZN6ThreadC2Ev:
 397              	.LFB43:
  21:src/syscall_cpp.cpp ****     thread_init(&myHandle, wrapper, this);
 398              		.loc 2 21 1 is_stmt 1
 399              		.cfi_startproc
 400              	.LVL29:
 401 01bc 130101FF 		addi	sp,sp,-16
 402              		.cfi_def_cfa_offset 16
GAS LISTING /tmp/cc6nHVmR.s 			page 10


 403 01c0 23341100 		sd	ra,8(sp)
 404 01c4 23308100 		sd	s0,0(sp)
 405              		.cfi_offset 1, -8
 406              		.cfi_offset 8, -16
 407 01c8 13040101 		addi	s0,sp,16
 408              		.cfi_def_cfa 8, 0
 409              	.LBB11:
  21:src/syscall_cpp.cpp ****     thread_init(&myHandle, wrapper, this);
 410              		.loc 2 21 16 is_stmt 0
 411 01cc 97070000 		lla	a5,_ZTV6Thread+16
 411      93870700 
 412 01d4 2330F500 		sd	a5,0(a0)
  22:src/syscall_cpp.cpp **** }
 413              		.loc 2 22 5 is_stmt 1
  22:src/syscall_cpp.cpp **** }
 414              		.loc 2 22 16 is_stmt 0
 415 01d8 13060500 		mv	a2,a0
 416 01dc 97050000 		lla	a1,_ZN6Thread7wrapperEPv
 416      93850500 
 417 01e4 13058500 		addi	a0,a0,8
 418              	.LVL30:
 419 01e8 97000000 		call	_Z11thread_initPP3TCBPFvPvES2_@plt
 419      E7800000 
 420              	.LVL31:
 421              	.LBE11:
  23:src/syscall_cpp.cpp **** 
 422              		.loc 2 23 1
 423 01f0 83308100 		ld	ra,8(sp)
 424              		.cfi_restore 1
 425 01f4 03340100 		ld	s0,0(sp)
 426              		.cfi_restore 8
 427              		.cfi_def_cfa 2, 16
 428 01f8 13010101 		addi	sp,sp,16
 429              		.cfi_def_cfa_offset 0
 430 01fc 67800000 		jr	ra
 431              		.cfi_endproc
 432              	.LFE43:
 434              		.globl	_ZN6ThreadC1Ev
 435              		.set	_ZN6ThreadC1Ev,_ZN6ThreadC2Ev
 436              		.align	2
 437              		.globl	_ZN6Thread5sleepEm
 439              	_ZN6Thread5sleepEm:
 440              	.LFB45:
  25:src/syscall_cpp.cpp ****     return 0;
 441              		.loc 2 25 32 is_stmt 1
 442              		.cfi_startproc
 443              	.LVL32:
 444 0200 130101FF 		addi	sp,sp,-16
 445              		.cfi_def_cfa_offset 16
 446 0204 23348100 		sd	s0,8(sp)
 447              		.cfi_offset 8, -8
 448 0208 13040101 		addi	s0,sp,16
 449              		.cfi_def_cfa 8, 0
  26:src/syscall_cpp.cpp **** }
 450              		.loc 2 26 5
  27:src/syscall_cpp.cpp **** 
 451              		.loc 2 27 1 is_stmt 0
GAS LISTING /tmp/cc6nHVmR.s 			page 11


 452 020c 13050000 		li	a0,0
 453              	.LVL33:
 454 0210 03348100 		ld	s0,8(sp)
 455              		.cfi_restore 8
 456              		.cfi_def_cfa 2, 16
 457 0214 13010101 		addi	sp,sp,16
 458              		.cfi_def_cfa_offset 0
 459 0218 67800000 		jr	ra
 460              		.cfi_endproc
 461              	.LFE45:
 463              		.align	2
 464              		.globl	_ZN6Thread11synchronizeEv
 466              	_ZN6Thread11synchronizeEv:
 467              	.LFB46:
  29:src/syscall_cpp.cpp ****     ::synchronize(myHandle);
 468              		.loc 2 29 28 is_stmt 1
 469              		.cfi_startproc
 470              	.LVL34:
 471 021c 130101FF 		addi	sp,sp,-16
 472              		.cfi_def_cfa_offset 16
 473 0220 23341100 		sd	ra,8(sp)
 474 0224 23308100 		sd	s0,0(sp)
 475              		.cfi_offset 1, -8
 476              		.cfi_offset 8, -16
 477 0228 13040101 		addi	s0,sp,16
 478              		.cfi_def_cfa 8, 0
  30:src/syscall_cpp.cpp **** }
 479              		.loc 2 30 5
  30:src/syscall_cpp.cpp **** }
 480              		.loc 2 30 18 is_stmt 0
 481 022c 03358500 		ld	a0,8(a0)
 482              	.LVL35:
 483 0230 97000000 		call	_Z11synchronizeP3TCB@plt
 483      E7800000 
 484              	.LVL36:
  31:src/syscall_cpp.cpp **** 
 485              		.loc 2 31 1
 486 0238 83308100 		ld	ra,8(sp)
 487              		.cfi_restore 1
 488 023c 03340100 		ld	s0,0(sp)
 489              		.cfi_restore 8
 490              		.cfi_def_cfa 2, 16
 491 0240 13010101 		addi	sp,sp,16
 492              		.cfi_def_cfa_offset 0
 493 0244 67800000 		jr	ra
 494              		.cfi_endproc
 495              	.LFE46:
 497              		.align	2
 498              		.globl	_ZN6Thread4pairEPS_S0_
 500              	_ZN6Thread4pairEPS_S0_:
 501              	.LFB47:
  33:src/syscall_cpp.cpp ****     ::pair(t1->myHandle, t2->myHandle);
 502              		.loc 2 33 43 is_stmt 1
 503              		.cfi_startproc
 504              	.LVL37:
 505 0248 130101FF 		addi	sp,sp,-16
 506              		.cfi_def_cfa_offset 16
GAS LISTING /tmp/cc6nHVmR.s 			page 12


 507 024c 23341100 		sd	ra,8(sp)
 508 0250 23308100 		sd	s0,0(sp)
 509              		.cfi_offset 1, -8
 510              		.cfi_offset 8, -16
 511 0254 13040101 		addi	s0,sp,16
 512              		.cfi_def_cfa 8, 0
  34:src/syscall_cpp.cpp **** }
 513              		.loc 2 34 5
  34:src/syscall_cpp.cpp **** }
 514              		.loc 2 34 11 is_stmt 0
 515 0258 83B58500 		ld	a1,8(a1)
 516              	.LVL38:
 517 025c 03358500 		ld	a0,8(a0)
 518              	.LVL39:
 519 0260 97000000 		call	_Z4pairP3TCBS0_@plt
 519      E7800000 
 520              	.LVL40:
  35:src/syscall_cpp.cpp **** 
 521              		.loc 2 35 1
 522 0268 83308100 		ld	ra,8(sp)
 523              		.cfi_restore 1
 524 026c 03340100 		ld	s0,0(sp)
 525              		.cfi_restore 8
 526              		.cfi_def_cfa 2, 16
 527 0270 13010101 		addi	sp,sp,16
 528              		.cfi_def_cfa_offset 0
 529 0274 67800000 		jr	ra
 530              		.cfi_endproc
 531              	.LFE47:
 533              		.align	2
 534              		.globl	_ZN9SemaphoreC2Ej
 536              	_ZN9SemaphoreC2Ej:
 537              	.LFB49:
  37:src/syscall_cpp.cpp ****     sem_open(&myHandle, (int)init);
 538              		.loc 2 37 1 is_stmt 1
 539              		.cfi_startproc
 540              	.LVL41:
 541 0278 130101FF 		addi	sp,sp,-16
 542              		.cfi_def_cfa_offset 16
 543 027c 23341100 		sd	ra,8(sp)
 544 0280 23308100 		sd	s0,0(sp)
 545              		.cfi_offset 1, -8
 546              		.cfi_offset 8, -16
 547 0284 13040101 		addi	s0,sp,16
 548              		.cfi_def_cfa 8, 0
 549              	.LBB12:
  37:src/syscall_cpp.cpp ****     sem_open(&myHandle, (int)init);
 550              		.loc 2 37 39 is_stmt 0
 551 0288 97070000 		lla	a5,_ZTV9Semaphore+16
 551      93870700 
 552 0290 2330F500 		sd	a5,0(a0)
  38:src/syscall_cpp.cpp **** }
 553              		.loc 2 38 5 is_stmt 1
  38:src/syscall_cpp.cpp **** }
 554              		.loc 2 38 13 is_stmt 0
 555 0294 13058500 		addi	a0,a0,8
 556              	.LVL42:
GAS LISTING /tmp/cc6nHVmR.s 			page 13


 557 0298 97000000 		call	_Z8sem_openPP13SyncSemaphorej@plt
 557      E7800000 
 558              	.LVL43:
 559              	.LBE12:
  39:src/syscall_cpp.cpp **** 
 560              		.loc 2 39 1
 561 02a0 83308100 		ld	ra,8(sp)
 562              		.cfi_restore 1
 563 02a4 03340100 		ld	s0,0(sp)
 564              		.cfi_restore 8
 565              		.cfi_def_cfa 2, 16
 566 02a8 13010101 		addi	sp,sp,16
 567              		.cfi_def_cfa_offset 0
 568 02ac 67800000 		jr	ra
 569              		.cfi_endproc
 570              	.LFE49:
 572              		.globl	_ZN9SemaphoreC1Ej
 573              		.set	_ZN9SemaphoreC1Ej,_ZN9SemaphoreC2Ej
 574              		.align	2
 575              		.globl	_ZN9Semaphore4waitEv
 577              	_ZN9Semaphore4waitEv:
 578              	.LFB55:
  45:src/syscall_cpp.cpp **** 
  46:src/syscall_cpp.cpp **** int Semaphore::wait() {
 579              		.loc 2 46 23 is_stmt 1
 580              		.cfi_startproc
 581              	.LVL44:
 582 02b0 130101FF 		addi	sp,sp,-16
 583              		.cfi_def_cfa_offset 16
 584 02b4 23341100 		sd	ra,8(sp)
 585 02b8 23308100 		sd	s0,0(sp)
 586              		.cfi_offset 1, -8
 587              		.cfi_offset 8, -16
 588 02bc 13040101 		addi	s0,sp,16
 589              		.cfi_def_cfa 8, 0
  47:src/syscall_cpp.cpp ****     return sem_wait(myHandle);
 590              		.loc 2 47 5
 591              		.loc 2 47 20 is_stmt 0
 592 02c0 03358500 		ld	a0,8(a0)
 593              	.LVL45:
 594 02c4 97000000 		call	_Z8sem_waitP13SyncSemaphore@plt
 594      E7800000 
 595              	.LVL46:
  48:src/syscall_cpp.cpp **** }
 596              		.loc 2 48 1
 597 02cc 83308100 		ld	ra,8(sp)
 598              		.cfi_restore 1
 599 02d0 03340100 		ld	s0,0(sp)
 600              		.cfi_restore 8
 601              		.cfi_def_cfa 2, 16
 602 02d4 13010101 		addi	sp,sp,16
 603              		.cfi_def_cfa_offset 0
 604 02d8 67800000 		jr	ra
 605              		.cfi_endproc
 606              	.LFE55:
 608              		.align	2
 609              		.globl	_ZN9Semaphore6signalEv
GAS LISTING /tmp/cc6nHVmR.s 			page 14


 611              	_ZN9Semaphore6signalEv:
 612              	.LFB56:
  49:src/syscall_cpp.cpp **** 
  50:src/syscall_cpp.cpp **** int Semaphore::signal() {
 613              		.loc 2 50 25 is_stmt 1
 614              		.cfi_startproc
 615              	.LVL47:
 616 02dc 130101FF 		addi	sp,sp,-16
 617              		.cfi_def_cfa_offset 16
 618 02e0 23341100 		sd	ra,8(sp)
 619 02e4 23308100 		sd	s0,0(sp)
 620              		.cfi_offset 1, -8
 621              		.cfi_offset 8, -16
 622 02e8 13040101 		addi	s0,sp,16
 623              		.cfi_def_cfa 8, 0
  51:src/syscall_cpp.cpp ****     return sem_signal(myHandle);
 624              		.loc 2 51 5
 625              		.loc 2 51 22 is_stmt 0
 626 02ec 03358500 		ld	a0,8(a0)
 627              	.LVL48:
 628 02f0 97000000 		call	_Z10sem_signalP13SyncSemaphore@plt
 628      E7800000 
 629              	.LVL49:
  52:src/syscall_cpp.cpp **** }
 630              		.loc 2 52 1
 631 02f8 83308100 		ld	ra,8(sp)
 632              		.cfi_restore 1
 633 02fc 03340100 		ld	s0,0(sp)
 634              		.cfi_restore 8
 635              		.cfi_def_cfa 2, 16
 636 0300 13010101 		addi	sp,sp,16
 637              		.cfi_def_cfa_offset 0
 638 0304 67800000 		jr	ra
 639              		.cfi_endproc
 640              	.LFE56:
 642              		.align	2
 643              		.globl	_ZN9Semaphore7tryWaitEv
 645              	_ZN9Semaphore7tryWaitEv:
 646              	.LFB57:
  53:src/syscall_cpp.cpp **** 
  54:src/syscall_cpp.cpp **** int Semaphore::tryWait() {
 647              		.loc 2 54 26 is_stmt 1
 648              		.cfi_startproc
 649              	.LVL50:
 650 0308 130101FF 		addi	sp,sp,-16
 651              		.cfi_def_cfa_offset 16
 652 030c 23341100 		sd	ra,8(sp)
 653 0310 23308100 		sd	s0,0(sp)
 654              		.cfi_offset 1, -8
 655              		.cfi_offset 8, -16
 656 0314 13040101 		addi	s0,sp,16
 657              		.cfi_def_cfa 8, 0
  55:src/syscall_cpp.cpp ****     return sem_trywait(myHandle);
 658              		.loc 2 55 5
 659              		.loc 2 55 23 is_stmt 0
 660 0318 03358500 		ld	a0,8(a0)
 661              	.LVL51:
GAS LISTING /tmp/cc6nHVmR.s 			page 15


 662 031c 97000000 		call	_Z11sem_trywaitP13SyncSemaphore@plt
 662      E7800000 
 663              	.LVL52:
  56:src/syscall_cpp.cpp **** }
 664              		.loc 2 56 1
 665 0324 83308100 		ld	ra,8(sp)
 666              		.cfi_restore 1
 667 0328 03340100 		ld	s0,0(sp)
 668              		.cfi_restore 8
 669              		.cfi_def_cfa 2, 16
 670 032c 13010101 		addi	sp,sp,16
 671              		.cfi_def_cfa_offset 0
 672 0330 67800000 		jr	ra
 673              		.cfi_endproc
 674              	.LFE57:
 676              		.align	2
 677              		.globl	_ZN9Semaphore9timedWaitEm
 679              	_ZN9Semaphore9timedWaitEm:
 680              	.LFB58:
  57:src/syscall_cpp.cpp **** 
  58:src/syscall_cpp.cpp **** int Semaphore::timedWait(time_t) {
 681              		.loc 2 58 34 is_stmt 1
 682              		.cfi_startproc
 683              	.LVL53:
 684 0334 130101FF 		addi	sp,sp,-16
 685              		.cfi_def_cfa_offset 16
 686 0338 23348100 		sd	s0,8(sp)
 687              		.cfi_offset 8, -8
 688 033c 13040101 		addi	s0,sp,16
 689              		.cfi_def_cfa 8, 0
  59:src/syscall_cpp.cpp ****     return 0;
 690              		.loc 2 59 5
  60:src/syscall_cpp.cpp **** }
 691              		.loc 2 60 1 is_stmt 0
 692 0340 13050000 		li	a0,0
 693              	.LVL54:
 694 0344 03348100 		ld	s0,8(sp)
 695              		.cfi_restore 8
 696              		.cfi_def_cfa 2, 16
 697 0348 13010101 		addi	sp,sp,16
 698              		.cfi_def_cfa_offset 0
 699 034c 67800000 		jr	ra
 700              		.cfi_endproc
 701              	.LFE58:
 703              		.align	2
 704              		.globl	_ZN7Console4putcEc
 706              	_ZN7Console4putcEc:
 707              	.LFB59:
  61:src/syscall_cpp.cpp **** 
  62:src/syscall_cpp.cpp **** void Console::putc(char c) {
 708              		.loc 2 62 28 is_stmt 1
 709              		.cfi_startproc
 710              	.LVL55:
 711 0350 130101FF 		addi	sp,sp,-16
 712              		.cfi_def_cfa_offset 16
 713 0354 23341100 		sd	ra,8(sp)
 714 0358 23308100 		sd	s0,0(sp)
GAS LISTING /tmp/cc6nHVmR.s 			page 16


 715              		.cfi_offset 1, -8
 716              		.cfi_offset 8, -16
 717 035c 13040101 		addi	s0,sp,16
 718              		.cfi_def_cfa 8, 0
  63:src/syscall_cpp.cpp ****     ::putc(c);
 719              		.loc 2 63 5
 720              		.loc 2 63 11 is_stmt 0
 721 0360 97000000 		call	_Z4putcc@plt
 721      E7800000 
 722              	.LVL56:
  64:src/syscall_cpp.cpp **** }
 723              		.loc 2 64 1
 724 0368 83308100 		ld	ra,8(sp)
 725              		.cfi_restore 1
 726 036c 03340100 		ld	s0,0(sp)
 727              		.cfi_restore 8
 728              		.cfi_def_cfa 2, 16
 729 0370 13010101 		addi	sp,sp,16
 730              		.cfi_def_cfa_offset 0
 731 0374 67800000 		jr	ra
 732              		.cfi_endproc
 733              	.LFE59:
 735              		.align	2
 736              		.globl	_ZN7Console4getcEv
 738              	_ZN7Console4getcEv:
 739              	.LFB60:
  65:src/syscall_cpp.cpp **** 
  66:src/syscall_cpp.cpp **** char Console::getc() {
 740              		.loc 2 66 22 is_stmt 1
 741              		.cfi_startproc
 742 0378 130101FF 		addi	sp,sp,-16
 743              		.cfi_def_cfa_offset 16
 744 037c 23341100 		sd	ra,8(sp)
 745 0380 23308100 		sd	s0,0(sp)
 746              		.cfi_offset 1, -8
 747              		.cfi_offset 8, -16
 748 0384 13040101 		addi	s0,sp,16
 749              		.cfi_def_cfa 8, 0
  67:src/syscall_cpp.cpp ****     return ::getc();
 750              		.loc 2 67 5
 751              		.loc 2 67 18 is_stmt 0
 752 0388 97000000 		call	_Z4getcv@plt
 752      E7800000 
 753              	.LVL57:
  68:src/syscall_cpp.cpp **** }
 754              		.loc 2 68 1
 755 0390 83308100 		ld	ra,8(sp)
 756              		.cfi_restore 1
 757 0394 03340100 		ld	s0,0(sp)
 758              		.cfi_restore 8
 759              		.cfi_def_cfa 2, 16
 760 0398 13010101 		addi	sp,sp,16
 761              		.cfi_def_cfa_offset 0
 762 039c 67800000 		jr	ra
 763              		.cfi_endproc
 764              	.LFE60:
 766              		.weak	_ZTV6Thread
GAS LISTING /tmp/cc6nHVmR.s 			page 17


 767              		.section	.data.rel.ro.local._ZTV6Thread,"awG",@progbits,_ZTV6Thread,comdat
 768              		.align	3
 771              	_ZTV6Thread:
 772 0000 00000000 		.dword	0
 772      00000000 
 773 0008 00000000 		.dword	0
 773      00000000 
 774 0010 00000000 		.dword	_ZN6ThreadD1Ev
 774      00000000 
 775 0018 00000000 		.dword	_ZN6ThreadD0Ev
 775      00000000 
 776 0020 00000000 		.dword	_ZN6Thread3runEv
 776      00000000 
 777              		.weak	_ZTV9Semaphore
 778              		.section	.data.rel.ro.local._ZTV9Semaphore,"awG",@progbits,_ZTV9Semaphore,comdat
 779              		.align	3
 782              	_ZTV9Semaphore:
 783 0000 00000000 		.dword	0
 783      00000000 
 784 0008 00000000 		.dword	0
 784      00000000 
 785 0010 00000000 		.dword	_ZN9SemaphoreD1Ev
 785      00000000 
 786 0018 00000000 		.dword	_ZN9SemaphoreD0Ev
 786      00000000 
 787              		.text
 788              	.Letext0:
 789              		.file 4 "src/../h/../lib/hw.h"
 790              		.file 5 "src/../h/list.hpp"
 791              		.file 6 "src/../h/syncSemaphore.hpp"
 792              		.file 7 "src/../h/syscall_c.hpp"
 4528              		.align	3
 4531              	DW.ref.__gxx_personality_v0:
 4532 0000 00000000 		.dword	__gxx_personality_v0
 4532      00000000 
 4533              		.ident	"GCC: (Ubuntu 9.4.0-1ubuntu1~20.04) 9.4.0"
 4534              		.section	.note.GNU-stack,"",@progbits
GAS LISTING /tmp/cc6nHVmR.s 			page 18

