GAS LISTING /tmp/ccPo9r7G.s 			page 1


   1              		.file	"syscall_c.cpp"
   2              		.option pic
   3              		.option norelax
   4              		.text
   5              	.Ltext0:
   6              		.align	2
   7              		.globl	_Z9mem_allocm
   9              	_Z9mem_allocm:
  10              	.LFB44:
  11              		.file 1 "src/syscall_c.cpp"
   1:src/syscall_c.cpp **** #include "../h/syscall_c.hpp"
   2:src/syscall_c.cpp **** #include "../h/riscv.hpp"
   3:src/syscall_c.cpp **** 
   4:src/syscall_c.cpp **** void* mem_alloc(size_t size) {
  12              		.loc 1 4 30
  13              		.cfi_startproc
  14              	.LVL0:
  15 0000 130101FF 		addi	sp,sp,-16
  16              		.cfi_def_cfa_offset 16
  17 0004 23348100 		sd	s0,8(sp)
  18              		.cfi_offset 8, -8
  19 0008 13040101 		addi	s0,sp,16
  20              		.cfi_def_cfa 8, 0
   5:src/syscall_c.cpp **** 
   6:src/syscall_c.cpp ****     if(size%MEM_BLOCK_SIZE != 0)
  21              		.loc 1 6 5
  22              		.loc 1 6 12 is_stmt 0
  23 000c 9377F503 		andi	a5,a0,63
  24              		.loc 1 6 5
  25 0010 63860700 		beqz	a5,.L2
   7:src/syscall_c.cpp ****         size = ((size + MEM_BLOCK_SIZE - 1) / MEM_BLOCK_SIZE) * MEM_BLOCK_SIZE;
  26              		.loc 1 7 9 is_stmt 1
  27              		.loc 1 7 40 is_stmt 0
  28 0014 1305F503 		addi	a0,a0,63
  29              	.LVL1:
  30              		.loc 1 7 14
  31 0018 137505FC 		andi	a0,a0,-64
  32              	.LVL2:
  33              	.L2:
   8:src/syscall_c.cpp ****     __asm__ volatile("mv a1, %0" : : "r"(size));
  34              		.loc 1 8 5 is_stmt 1
  35              		.loc 1 8 48 is_stmt 0
  36              	#APP
  37              	# 8 "src/syscall_c.cpp" 1
   9              	    __asm__ volatile("li a0, 0x01");
  38              		mv a1, a0
  39              	# 0 "" 2
  40              		.loc 1 9 5 is_stmt 1
  41              		.loc 1 9 36 is_stmt 0
  42              	# 9 "src/syscall_c.cpp" 1
  10              	    __asm__ volatile("ecall");
  43              		li a0, 0x01
  44              	# 0 "" 2
  45              		.loc 1 10 5 is_stmt 1
  46              		.loc 1 10 30 is_stmt 0
  47              	# 10 "src/syscall_c.cpp" 1
  11              	    void* ret;
GAS LISTING /tmp/ccPo9r7G.s 			page 2


  48              		ecall
  49              	# 0 "" 2
  50              		.loc 1 11 5 is_stmt 1
  12:src/syscall_c.cpp ****     __asm__ volatile("mv %0, a0" : "=r"(ret));
  51              		.loc 1 12 5
  52              		.loc 1 12 46 is_stmt 0
  53              	# 12 "src/syscall_c.cpp" 1
  13              	    return ret;
  54              		mv a0, a0
  55              	# 0 "" 2
  56              	.LVL3:
  57              		.loc 1 13 5 is_stmt 1
  14:src/syscall_c.cpp **** 
  15:src/syscall_c.cpp **** }
  58              		.loc 1 15 1 is_stmt 0
  59              	#NO_APP
  60 002c 03348100 		ld	s0,8(sp)
  61              		.cfi_restore 8
  62              		.cfi_def_cfa 2, 16
  63 0030 13010101 		addi	sp,sp,16
  64              		.cfi_def_cfa_offset 0
  65 0034 67800000 		jr	ra
  66              		.cfi_endproc
  67              	.LFE44:
  69              		.align	2
  70              		.globl	_Z8mem_freePv
  72              	_Z8mem_freePv:
  73              	.LFB45:
  16:src/syscall_c.cpp **** 
  17:src/syscall_c.cpp **** int mem_free(void* ptr) {
  74              		.loc 1 17 25 is_stmt 1
  75              		.cfi_startproc
  76              	.LVL4:
  77 0038 130101FF 		addi	sp,sp,-16
  78              		.cfi_def_cfa_offset 16
  79 003c 23348100 		sd	s0,8(sp)
  80              		.cfi_offset 8, -8
  81 0040 13040101 		addi	s0,sp,16
  82              		.cfi_def_cfa 8, 0
  18:src/syscall_c.cpp **** 
  19:src/syscall_c.cpp ****     __asm__ volatile("mv a1, %0" : : "r"(ptr));
  83              		.loc 1 19 5
  84              		.loc 1 19 47 is_stmt 0
  85              	#APP
  86              	# 19 "src/syscall_c.cpp" 1
  20              	    __asm__ volatile("li a0, 0x02");
  87              		mv a1, a0
  88              	# 0 "" 2
  89              		.loc 1 20 5 is_stmt 1
  90              		.loc 1 20 36 is_stmt 0
  91              	# 20 "src/syscall_c.cpp" 1
  21              	    __asm__ volatile("ecall");
  92              		li a0, 0x02
  93              	# 0 "" 2
  94              		.loc 1 21 5 is_stmt 1
  95              		.loc 1 21 30 is_stmt 0
  96              	# 21 "src/syscall_c.cpp" 1
GAS LISTING /tmp/ccPo9r7G.s 			page 3


  22              	    uint64 ret;
  97              		ecall
  98              	# 0 "" 2
  99              		.loc 1 22 5 is_stmt 1
  23:src/syscall_c.cpp ****     __asm__ volatile("mv %0, a0" : "=r"(ret));
 100              		.loc 1 23 5
 101              		.loc 1 23 46 is_stmt 0
 102              	# 23 "src/syscall_c.cpp" 1
  24              	    return (int)ret;
 103              		mv a0, a0
 104              	# 0 "" 2
 105              	.LVL5:
 106              		.loc 1 24 5 is_stmt 1
  25:src/syscall_c.cpp **** 
  26:src/syscall_c.cpp **** }
 107              		.loc 1 26 1 is_stmt 0
 108              	#NO_APP
 109 0054 1B050500 		sext.w	a0,a0
 110              	.LVL6:
 111 0058 03348100 		ld	s0,8(sp)
 112              		.cfi_restore 8
 113              		.cfi_def_cfa 2, 16
 114 005c 13010101 		addi	sp,sp,16
 115              		.cfi_def_cfa_offset 0
 116 0060 67800000 		jr	ra
 117              		.cfi_endproc
 118              	.LFE45:
 120              		.align	2
 121              		.globl	_Z12thread_startP3TCB
 123              	_Z12thread_startP3TCB:
 124              	.LFB46:
  27:src/syscall_c.cpp **** 
  28:src/syscall_c.cpp **** void thread_start(thread_t handle) {
 125              		.loc 1 28 36 is_stmt 1
 126              		.cfi_startproc
 127              	.LVL7:
 128 0064 130101FF 		addi	sp,sp,-16
 129              		.cfi_def_cfa_offset 16
 130 0068 23348100 		sd	s0,8(sp)
 131              		.cfi_offset 8, -8
 132 006c 13040101 		addi	s0,sp,16
 133              		.cfi_def_cfa 8, 0
  29:src/syscall_c.cpp **** 
  30:src/syscall_c.cpp ****     __asm__ volatile("mv a1, %0" : : "r"(handle));
 134              		.loc 1 30 5
 135              		.loc 1 30 50 is_stmt 0
 136              	#APP
 137              	# 30 "src/syscall_c.cpp" 1
  31              	    __asm__ volatile("li a0, 0x09");
 138              		mv a1, a0
 139              	# 0 "" 2
 140              		.loc 1 31 5 is_stmt 1
 141              		.loc 1 31 36 is_stmt 0
 142              	# 31 "src/syscall_c.cpp" 1
  32              	    __asm__ volatile("ecall");
 143              		li a0, 0x09
 144              	# 0 "" 2
GAS LISTING /tmp/ccPo9r7G.s 			page 4


 145              		.loc 1 32 5 is_stmt 1
 146              		.loc 1 32 30 is_stmt 0
 147              	# 32 "src/syscall_c.cpp" 1
  33              	
  34:src/syscall_c.cpp **** }
 148              		ecall
 149              	# 0 "" 2
 150              		.loc 1 34 1
 151              	#NO_APP
 152 007c 03348100 		ld	s0,8(sp)
 153              		.cfi_restore 8
 154              		.cfi_def_cfa 2, 16
 155 0080 13010101 		addi	sp,sp,16
 156              		.cfi_def_cfa_offset 0
 157 0084 67800000 		jr	ra
 158              		.cfi_endproc
 159              	.LFE46:
 161              		.align	2
 162              		.globl	_Z11thread_initPP3TCBPFvPvES2_
 164              	_Z11thread_initPP3TCBPFvPvES2_:
 165              	.LFB47:
  35:src/syscall_c.cpp **** 
  36:src/syscall_c.cpp **** int thread_init(thread_t* handle, void (*start_routine)(void*), void* arg){
 166              		.loc 1 36 75 is_stmt 1
 167              		.cfi_startproc
 168              	.LVL8:
 169 0088 130101FF 		addi	sp,sp,-16
 170              		.cfi_def_cfa_offset 16
 171 008c 23348100 		sd	s0,8(sp)
 172              		.cfi_offset 8, -8
 173 0090 13040101 		addi	s0,sp,16
 174              		.cfi_def_cfa 8, 0
  37:src/syscall_c.cpp **** 
  38:src/syscall_c.cpp ****     __asm__ volatile("mv a6, %0" : : "r"(arg));
 175              		.loc 1 38 5
 176              		.loc 1 38 47 is_stmt 0
 177              	#APP
 178              	# 38 "src/syscall_c.cpp" 1
  39              	    __asm__ volatile("mv a2, %0" : : "r"(start_routine));
 179              		mv a6, a2
 180              	# 0 "" 2
 181              		.loc 1 39 5 is_stmt 1
 182              		.loc 1 39 57 is_stmt 0
 183              	# 39 "src/syscall_c.cpp" 1
  40              	    __asm__ volatile("mv a1, %0" : : "r"(handle));
 184              		mv a2, a1
 185              	# 0 "" 2
 186              		.loc 1 40 5 is_stmt 1
 187              		.loc 1 40 50 is_stmt 0
 188              	# 40 "src/syscall_c.cpp" 1
  41              	    __asm__ volatile("li a0, 0x10");
 189              		mv a1, a0
 190              	# 0 "" 2
 191              		.loc 1 41 5 is_stmt 1
 192              		.loc 1 41 36 is_stmt 0
 193              	# 41 "src/syscall_c.cpp" 1
  42              	    __asm__ volatile("ecall");
GAS LISTING /tmp/ccPo9r7G.s 			page 5


 194              		li a0, 0x10
 195              	# 0 "" 2
 196              		.loc 1 42 5 is_stmt 1
 197              		.loc 1 42 30 is_stmt 0
 198              	# 42 "src/syscall_c.cpp" 1
  43              	    uint64 ret;
 199              		ecall
 200              	# 0 "" 2
 201              		.loc 1 43 5 is_stmt 1
  44:src/syscall_c.cpp ****     __asm__ volatile("mv %0, a0" : "=r"(ret));
 202              		.loc 1 44 5
 203              		.loc 1 44 46 is_stmt 0
 204              	# 44 "src/syscall_c.cpp" 1
  45              	    return (int)ret;
 205              		mv a0, a0
 206              	# 0 "" 2
 207              	.LVL9:
 208              		.loc 1 45 5 is_stmt 1
  46:src/syscall_c.cpp **** 
  47:src/syscall_c.cpp **** }
 209              		.loc 1 47 1 is_stmt 0
 210              	#NO_APP
 211 00ac 1B050500 		sext.w	a0,a0
 212              	.LVL10:
 213 00b0 03348100 		ld	s0,8(sp)
 214              		.cfi_restore 8
 215              		.cfi_def_cfa 2, 16
 216 00b4 13010101 		addi	sp,sp,16
 217              		.cfi_def_cfa_offset 0
 218 00b8 67800000 		jr	ra
 219              		.cfi_endproc
 220              	.LFE47:
 222              		.align	2
 223              		.globl	_Z13thread_createPP3TCBPFvPvES2_
 225              	_Z13thread_createPP3TCBPFvPvES2_:
 226              	.LFB48:
  48:src/syscall_c.cpp **** 
  49:src/syscall_c.cpp **** int thread_create(thread_t* handle, void (*start_routine)(void*), void* arg) {
 227              		.loc 1 49 78 is_stmt 1
 228              		.cfi_startproc
 229              	.LVL11:
 230 00bc 130101FF 		addi	sp,sp,-16
 231              		.cfi_def_cfa_offset 16
 232 00c0 23348100 		sd	s0,8(sp)
 233              		.cfi_offset 8, -8
 234 00c4 13040101 		addi	s0,sp,16
 235              		.cfi_def_cfa 8, 0
  50:src/syscall_c.cpp **** 
  51:src/syscall_c.cpp ****     __asm__ volatile("mv a6, %0" : : "r"(arg));
 236              		.loc 1 51 5
 237              		.loc 1 51 47 is_stmt 0
 238              	#APP
 239              	# 51 "src/syscall_c.cpp" 1
  52              	    __asm__ volatile("mv a2, %0" : : "r"(start_routine));
 240              		mv a6, a2
 241              	# 0 "" 2
 242              		.loc 1 52 5 is_stmt 1
GAS LISTING /tmp/ccPo9r7G.s 			page 6


 243              		.loc 1 52 57 is_stmt 0
 244              	# 52 "src/syscall_c.cpp" 1
  53              	    __asm__ volatile("mv a1, %0" : : "r"(handle));
 245              		mv a2, a1
 246              	# 0 "" 2
 247              		.loc 1 53 5 is_stmt 1
 248              		.loc 1 53 50 is_stmt 0
 249              	# 53 "src/syscall_c.cpp" 1
  54              	    __asm__ volatile("li a0, 0x11");
 250              		mv a1, a0
 251              	# 0 "" 2
 252              		.loc 1 54 5 is_stmt 1
 253              		.loc 1 54 36 is_stmt 0
 254              	# 54 "src/syscall_c.cpp" 1
  55              	    __asm__ volatile("ecall");
 255              		li a0, 0x11
 256              	# 0 "" 2
 257              		.loc 1 55 5 is_stmt 1
 258              		.loc 1 55 30 is_stmt 0
 259              	# 55 "src/syscall_c.cpp" 1
  56              	    uint64 ret;
 260              		ecall
 261              	# 0 "" 2
 262              		.loc 1 56 5 is_stmt 1
  57:src/syscall_c.cpp ****     __asm__ volatile("mv %0, a0" : "=r"(ret));
 263              		.loc 1 57 5
 264              		.loc 1 57 46 is_stmt 0
 265              	# 57 "src/syscall_c.cpp" 1
  58              	    return (int)ret;
 266              		mv a0, a0
 267              	# 0 "" 2
 268              	.LVL12:
 269              		.loc 1 58 5 is_stmt 1
  59:src/syscall_c.cpp **** 
  60:src/syscall_c.cpp **** }
 270              		.loc 1 60 1 is_stmt 0
 271              	#NO_APP
 272 00e0 1B050500 		sext.w	a0,a0
 273              	.LVL13:
 274 00e4 03348100 		ld	s0,8(sp)
 275              		.cfi_restore 8
 276              		.cfi_def_cfa 2, 16
 277 00e8 13010101 		addi	sp,sp,16
 278              		.cfi_def_cfa_offset 0
 279 00ec 67800000 		jr	ra
 280              		.cfi_endproc
 281              	.LFE48:
 283              		.align	2
 284              		.globl	_Z11thread_exitv
 286              	_Z11thread_exitv:
 287              	.LFB49:
  61:src/syscall_c.cpp **** 
  62:src/syscall_c.cpp **** int thread_exit() {
 288              		.loc 1 62 19 is_stmt 1
 289              		.cfi_startproc
 290 00f0 130101FF 		addi	sp,sp,-16
 291              		.cfi_def_cfa_offset 16
GAS LISTING /tmp/ccPo9r7G.s 			page 7


 292 00f4 23348100 		sd	s0,8(sp)
 293              		.cfi_offset 8, -8
 294 00f8 13040101 		addi	s0,sp,16
 295              		.cfi_def_cfa 8, 0
  63:src/syscall_c.cpp **** 
  64:src/syscall_c.cpp ****     __asm__ volatile("li a0, 0x12");
 296              		.loc 1 64 5
 297              		.loc 1 64 36 is_stmt 0
 298              	#APP
 299              	# 64 "src/syscall_c.cpp" 1
  65              	    __asm__ volatile ("ecall");
 300              		li a0, 0x12
 301              	# 0 "" 2
 302              		.loc 1 65 5 is_stmt 1
 303              		.loc 1 65 31 is_stmt 0
 304              	# 65 "src/syscall_c.cpp" 1
  66              	    uint64 ret;
 305              		ecall
 306              	# 0 "" 2
 307              		.loc 1 66 5 is_stmt 1
  67:src/syscall_c.cpp ****     __asm__ volatile("mv %0, a0" : "=r"(ret));
 308              		.loc 1 67 5
 309              		.loc 1 67 46 is_stmt 0
 310              	# 67 "src/syscall_c.cpp" 1
  68              	    return (int)ret;
 311              		mv a0, a0
 312              	# 0 "" 2
 313              	.LVL14:
 314              		.loc 1 68 5 is_stmt 1
  69:src/syscall_c.cpp **** 
  70:src/syscall_c.cpp **** }
 315              		.loc 1 70 1 is_stmt 0
 316              	#NO_APP
 317 0108 1B050500 		sext.w	a0,a0
 318              	.LVL15:
 319 010c 03348100 		ld	s0,8(sp)
 320              		.cfi_restore 8
 321              		.cfi_def_cfa 2, 16
 322 0110 13010101 		addi	sp,sp,16
 323              		.cfi_def_cfa_offset 0
 324 0114 67800000 		jr	ra
 325              		.cfi_endproc
 326              	.LFE49:
 328              		.align	2
 329              		.globl	_Z15thread_dispatchv
 331              	_Z15thread_dispatchv:
 332              	.LFB50:
  71:src/syscall_c.cpp **** 
  72:src/syscall_c.cpp **** void thread_dispatch() {
 333              		.loc 1 72 24 is_stmt 1
 334              		.cfi_startproc
 335 0118 130101FF 		addi	sp,sp,-16
 336              		.cfi_def_cfa_offset 16
 337 011c 23348100 		sd	s0,8(sp)
 338              		.cfi_offset 8, -8
 339 0120 13040101 		addi	s0,sp,16
 340              		.cfi_def_cfa 8, 0
GAS LISTING /tmp/ccPo9r7G.s 			page 8


  73:src/syscall_c.cpp **** 
  74:src/syscall_c.cpp ****     __asm__ volatile("li a0, 0x13");
 341              		.loc 1 74 5
 342              		.loc 1 74 36 is_stmt 0
 343              	#APP
 344              	# 74 "src/syscall_c.cpp" 1
  75              	    __asm__ volatile ("ecall");
 345              		li a0, 0x13
 346              	# 0 "" 2
 347              		.loc 1 75 5 is_stmt 1
 348              		.loc 1 75 31 is_stmt 0
 349              	# 75 "src/syscall_c.cpp" 1
  76              	
  77:src/syscall_c.cpp **** }
 350              		ecall
 351              	# 0 "" 2
 352              		.loc 1 77 1
 353              	#NO_APP
 354 012c 03348100 		ld	s0,8(sp)
 355              		.cfi_restore 8
 356              		.cfi_def_cfa 2, 16
 357 0130 13010101 		addi	sp,sp,16
 358              		.cfi_def_cfa_offset 0
 359 0134 67800000 		jr	ra
 360              		.cfi_endproc
 361              	.LFE50:
 363              		.align	2
 364              		.globl	_Z8sem_openPP13SyncSemaphorej
 366              	_Z8sem_openPP13SyncSemaphorej:
 367              	.LFB51:
  78:src/syscall_c.cpp **** 
  79:src/syscall_c.cpp **** int sem_open(sem_t* handle, unsigned init) {
 368              		.loc 1 79 44 is_stmt 1
 369              		.cfi_startproc
 370              	.LVL16:
 371 0138 130101FF 		addi	sp,sp,-16
 372              		.cfi_def_cfa_offset 16
 373 013c 23348100 		sd	s0,8(sp)
 374              		.cfi_offset 8, -8
 375 0140 13040101 		addi	s0,sp,16
 376              		.cfi_def_cfa 8, 0
  80:src/syscall_c.cpp **** 
  81:src/syscall_c.cpp ****     __asm__ volatile("mv a2, %0" : : "r"(init));
 377              		.loc 1 81 5
 378              		.loc 1 81 48 is_stmt 0
 379              	#APP
 380              	# 81 "src/syscall_c.cpp" 1
  82              	    __asm__ volatile("mv a1, %0" : : "r"(handle));
 381              		mv a2, a1
 382              	# 0 "" 2
 383              		.loc 1 82 5 is_stmt 1
 384              		.loc 1 82 50 is_stmt 0
 385              	# 82 "src/syscall_c.cpp" 1
  83              	    __asm__ volatile("li a0, 0x21");
 386              		mv a1, a0
 387              	# 0 "" 2
 388              		.loc 1 83 5 is_stmt 1
GAS LISTING /tmp/ccPo9r7G.s 			page 9


 389              		.loc 1 83 36 is_stmt 0
 390              	# 83 "src/syscall_c.cpp" 1
  84              	    __asm__ volatile("ecall");
 391              		li a0, 0x21
 392              	# 0 "" 2
 393              		.loc 1 84 5 is_stmt 1
 394              		.loc 1 84 30 is_stmt 0
 395              	# 84 "src/syscall_c.cpp" 1
  85              	    uint64 ret;
 396              		ecall
 397              	# 0 "" 2
 398              		.loc 1 85 5 is_stmt 1
  86:src/syscall_c.cpp ****     __asm__ volatile("mv %0, a0" : "=r"(ret));
 399              		.loc 1 86 5
 400              		.loc 1 86 46 is_stmt 0
 401              	# 86 "src/syscall_c.cpp" 1
  87              	    return (int)ret;
 402              		mv a0, a0
 403              	# 0 "" 2
 404              	.LVL17:
 405              		.loc 1 87 5 is_stmt 1
  88:src/syscall_c.cpp **** 
  89:src/syscall_c.cpp **** }
 406              		.loc 1 89 1 is_stmt 0
 407              	#NO_APP
 408 0158 1B050500 		sext.w	a0,a0
 409              	.LVL18:
 410 015c 03348100 		ld	s0,8(sp)
 411              		.cfi_restore 8
 412              		.cfi_def_cfa 2, 16
 413 0160 13010101 		addi	sp,sp,16
 414              		.cfi_def_cfa_offset 0
 415 0164 67800000 		jr	ra
 416              		.cfi_endproc
 417              	.LFE51:
 419              		.align	2
 420              		.globl	_Z9sem_closeP13SyncSemaphore
 422              	_Z9sem_closeP13SyncSemaphore:
 423              	.LFB52:
  90:src/syscall_c.cpp **** 
  91:src/syscall_c.cpp **** int sem_close(sem_t id) {
 424              		.loc 1 91 25 is_stmt 1
 425              		.cfi_startproc
 426              	.LVL19:
 427 0168 130101FF 		addi	sp,sp,-16
 428              		.cfi_def_cfa_offset 16
 429 016c 23348100 		sd	s0,8(sp)
 430              		.cfi_offset 8, -8
 431 0170 13040101 		addi	s0,sp,16
 432              		.cfi_def_cfa 8, 0
  92:src/syscall_c.cpp ****     __asm__ volatile("mv a1, %0" : : "r"(id));
 433              		.loc 1 92 5
 434              		.loc 1 92 46 is_stmt 0
 435              	#APP
 436              	# 92 "src/syscall_c.cpp" 1
  93              	    __asm__ volatile("li a0, 0x22");
 437              		mv a1, a0
GAS LISTING /tmp/ccPo9r7G.s 			page 10


 438              	# 0 "" 2
 439              		.loc 1 93 5 is_stmt 1
 440              		.loc 1 93 36 is_stmt 0
 441              	# 93 "src/syscall_c.cpp" 1
  94              	    __asm__ volatile("ecall");
 442              		li a0, 0x22
 443              	# 0 "" 2
 444              		.loc 1 94 5 is_stmt 1
 445              		.loc 1 94 30 is_stmt 0
 446              	# 94 "src/syscall_c.cpp" 1
  95              	    uint64 ret;
 447              		ecall
 448              	# 0 "" 2
 449              		.loc 1 95 5 is_stmt 1
  96:src/syscall_c.cpp ****     __asm__ volatile("mv %0, a0" : "=r"(ret));
 450              		.loc 1 96 5
 451              		.loc 1 96 46 is_stmt 0
 452              	# 96 "src/syscall_c.cpp" 1
  97              	    return (int)ret;
 453              		mv a0, a0
 454              	# 0 "" 2
 455              	.LVL20:
 456              		.loc 1 97 5 is_stmt 1
  98:src/syscall_c.cpp **** }
 457              		.loc 1 98 1 is_stmt 0
 458              	#NO_APP
 459 0184 1B050500 		sext.w	a0,a0
 460              	.LVL21:
 461 0188 03348100 		ld	s0,8(sp)
 462              		.cfi_restore 8
 463              		.cfi_def_cfa 2, 16
 464 018c 13010101 		addi	sp,sp,16
 465              		.cfi_def_cfa_offset 0
 466 0190 67800000 		jr	ra
 467              		.cfi_endproc
 468              	.LFE52:
 470              		.align	2
 471              		.globl	_Z8sem_waitP13SyncSemaphore
 473              	_Z8sem_waitP13SyncSemaphore:
 474              	.LFB53:
  99:src/syscall_c.cpp **** 
 100:src/syscall_c.cpp **** int sem_wait(sem_t id) {
 475              		.loc 1 100 24 is_stmt 1
 476              		.cfi_startproc
 477              	.LVL22:
 478 0194 130101FF 		addi	sp,sp,-16
 479              		.cfi_def_cfa_offset 16
 480 0198 23348100 		sd	s0,8(sp)
 481              		.cfi_offset 8, -8
 482 019c 13040101 		addi	s0,sp,16
 483              		.cfi_def_cfa 8, 0
 101:src/syscall_c.cpp **** 
 102:src/syscall_c.cpp ****     __asm__ volatile("mv a1, %0" : : "r"(id));
 484              		.loc 1 102 5
 485              		.loc 1 102 46 is_stmt 0
 486              	#APP
 487              	# 102 "src/syscall_c.cpp" 1
GAS LISTING /tmp/ccPo9r7G.s 			page 11


 103              	    __asm__ volatile("li a0, 0x23");
 488              		mv a1, a0
 489              	# 0 "" 2
 490              		.loc 1 103 5 is_stmt 1
 491              		.loc 1 103 36 is_stmt 0
 492              	# 103 "src/syscall_c.cpp" 1
 104              	    __asm__ volatile("ecall");
 493              		li a0, 0x23
 494              	# 0 "" 2
 495              		.loc 1 104 5 is_stmt 1
 496              		.loc 1 104 30 is_stmt 0
 497              	# 104 "src/syscall_c.cpp" 1
 105              	    uint64 ret;
 498              		ecall
 499              	# 0 "" 2
 500              		.loc 1 105 5 is_stmt 1
 106:src/syscall_c.cpp ****     __asm__ volatile("mv %0, a0" : "=r"(ret));
 501              		.loc 1 106 5
 502              		.loc 1 106 46 is_stmt 0
 503              	# 106 "src/syscall_c.cpp" 1
 107              	    return (int)ret;
 504              		mv a0, a0
 505              	# 0 "" 2
 506              	.LVL23:
 507              		.loc 1 107 5 is_stmt 1
 108:src/syscall_c.cpp **** 
 109:src/syscall_c.cpp **** }
 508              		.loc 1 109 1 is_stmt 0
 509              	#NO_APP
 510 01b0 1B050500 		sext.w	a0,a0
 511              	.LVL24:
 512 01b4 03348100 		ld	s0,8(sp)
 513              		.cfi_restore 8
 514              		.cfi_def_cfa 2, 16
 515 01b8 13010101 		addi	sp,sp,16
 516              		.cfi_def_cfa_offset 0
 517 01bc 67800000 		jr	ra
 518              		.cfi_endproc
 519              	.LFE53:
 521              		.align	2
 522              		.globl	_Z10sem_signalP13SyncSemaphore
 524              	_Z10sem_signalP13SyncSemaphore:
 525              	.LFB54:
 110:src/syscall_c.cpp **** 
 111:src/syscall_c.cpp **** int sem_signal(sem_t id){
 526              		.loc 1 111 25 is_stmt 1
 527              		.cfi_startproc
 528              	.LVL25:
 529 01c0 130101FF 		addi	sp,sp,-16
 530              		.cfi_def_cfa_offset 16
 531 01c4 23348100 		sd	s0,8(sp)
 532              		.cfi_offset 8, -8
 533 01c8 13040101 		addi	s0,sp,16
 534              		.cfi_def_cfa 8, 0
 112:src/syscall_c.cpp **** 
 113:src/syscall_c.cpp ****     __asm__ volatile("mv a1, %0" : : "r"(id));
 535              		.loc 1 113 5
GAS LISTING /tmp/ccPo9r7G.s 			page 12


 536              		.loc 1 113 46 is_stmt 0
 537              	#APP
 538              	# 113 "src/syscall_c.cpp" 1
 114              	    __asm__ volatile("li a0, 0x24");
 539              		mv a1, a0
 540              	# 0 "" 2
 541              		.loc 1 114 5 is_stmt 1
 542              		.loc 1 114 36 is_stmt 0
 543              	# 114 "src/syscall_c.cpp" 1
 115              	    __asm__ volatile("ecall");
 544              		li a0, 0x24
 545              	# 0 "" 2
 546              		.loc 1 115 5 is_stmt 1
 547              		.loc 1 115 30 is_stmt 0
 548              	# 115 "src/syscall_c.cpp" 1
 116              	    uint64 ret;
 549              		ecall
 550              	# 0 "" 2
 551              		.loc 1 116 5 is_stmt 1
 117:src/syscall_c.cpp ****     __asm__ volatile("mv %0, a0" : "=r"(ret));
 552              		.loc 1 117 5
 553              		.loc 1 117 46 is_stmt 0
 554              	# 117 "src/syscall_c.cpp" 1
 118              	    return (int)ret;
 555              		mv a0, a0
 556              	# 0 "" 2
 557              	.LVL26:
 558              		.loc 1 118 5 is_stmt 1
 119:src/syscall_c.cpp **** 
 120:src/syscall_c.cpp **** }
 559              		.loc 1 120 1 is_stmt 0
 560              	#NO_APP
 561 01dc 1B050500 		sext.w	a0,a0
 562              	.LVL27:
 563 01e0 03348100 		ld	s0,8(sp)
 564              		.cfi_restore 8
 565              		.cfi_def_cfa 2, 16
 566 01e4 13010101 		addi	sp,sp,16
 567              		.cfi_def_cfa_offset 0
 568 01e8 67800000 		jr	ra
 569              		.cfi_endproc
 570              	.LFE54:
 572              		.align	2
 573              		.globl	_Z11sem_trywaitP13SyncSemaphore
 575              	_Z11sem_trywaitP13SyncSemaphore:
 576              	.LFB55:
 121:src/syscall_c.cpp **** 
 122:src/syscall_c.cpp **** int sem_trywait(sem_t id){
 577              		.loc 1 122 26 is_stmt 1
 578              		.cfi_startproc
 579              	.LVL28:
 580 01ec 130101FF 		addi	sp,sp,-16
 581              		.cfi_def_cfa_offset 16
 582 01f0 23348100 		sd	s0,8(sp)
 583              		.cfi_offset 8, -8
 584 01f4 13040101 		addi	s0,sp,16
 585              		.cfi_def_cfa 8, 0
GAS LISTING /tmp/ccPo9r7G.s 			page 13


 123:src/syscall_c.cpp **** 
 124:src/syscall_c.cpp ****     __asm__ volatile("mv a1, %0" : : "r"(id));
 586              		.loc 1 124 5
 587              		.loc 1 124 46 is_stmt 0
 588              	#APP
 589              	# 124 "src/syscall_c.cpp" 1
 125              	    __asm__ volatile("li a0, 0x26");
 590              		mv a1, a0
 591              	# 0 "" 2
 592              		.loc 1 125 5 is_stmt 1
 593              		.loc 1 125 36 is_stmt 0
 594              	# 125 "src/syscall_c.cpp" 1
 126              	    __asm__ volatile("ecall");
 595              		li a0, 0x26
 596              	# 0 "" 2
 597              		.loc 1 126 5 is_stmt 1
 598              		.loc 1 126 30 is_stmt 0
 599              	# 126 "src/syscall_c.cpp" 1
 127              	    uint64 ret;
 600              		ecall
 601              	# 0 "" 2
 602              		.loc 1 127 5 is_stmt 1
 128:src/syscall_c.cpp ****     __asm__ volatile("mv %0, a0" : "=r"(ret));
 603              		.loc 1 128 5
 604              		.loc 1 128 46 is_stmt 0
 605              	# 128 "src/syscall_c.cpp" 1
 129              	    return (int)ret;
 606              		mv a0, a0
 607              	# 0 "" 2
 608              	.LVL29:
 609              		.loc 1 129 5 is_stmt 1
 130:src/syscall_c.cpp **** 
 131:src/syscall_c.cpp **** }
 610              		.loc 1 131 1 is_stmt 0
 611              	#NO_APP
 612 0208 1B050500 		sext.w	a0,a0
 613              	.LVL30:
 614 020c 03348100 		ld	s0,8(sp)
 615              		.cfi_restore 8
 616              		.cfi_def_cfa 2, 16
 617 0210 13010101 		addi	sp,sp,16
 618              		.cfi_def_cfa_offset 0
 619 0214 67800000 		jr	ra
 620              		.cfi_endproc
 621              	.LFE55:
 623              		.align	2
 624              		.globl	_Z4getcv
 626              	_Z4getcv:
 627              	.LFB56:
 132:src/syscall_c.cpp **** 
 133:src/syscall_c.cpp **** char getc() {
 628              		.loc 1 133 13 is_stmt 1
 629              		.cfi_startproc
 630 0218 130101FF 		addi	sp,sp,-16
 631              		.cfi_def_cfa_offset 16
 632 021c 23348100 		sd	s0,8(sp)
 633              		.cfi_offset 8, -8
GAS LISTING /tmp/ccPo9r7G.s 			page 14


 634 0220 13040101 		addi	s0,sp,16
 635              		.cfi_def_cfa 8, 0
 134:src/syscall_c.cpp **** 
 135:src/syscall_c.cpp ****     __asm__ volatile("li a0, 0x41");
 636              		.loc 1 135 5
 637              		.loc 1 135 36 is_stmt 0
 638              	#APP
 639              	# 135 "src/syscall_c.cpp" 1
 136              	    __asm__ volatile ("ecall");
 640              		li a0, 0x41
 641              	# 0 "" 2
 642              		.loc 1 136 5 is_stmt 1
 643              		.loc 1 136 31 is_stmt 0
 644              	# 136 "src/syscall_c.cpp" 1
 137              	    char ret;
 645              		ecall
 646              	# 0 "" 2
 647              		.loc 1 137 5 is_stmt 1
 138:src/syscall_c.cpp ****     __asm__ volatile("mv %0, a0" : "=r"(ret));
 648              		.loc 1 138 5
 649              		.loc 1 138 46 is_stmt 0
 650              	# 138 "src/syscall_c.cpp" 1
 139              	    return ret;
 651              		mv a0, a0
 652              	# 0 "" 2
 653              	.LVL31:
 654              		.loc 1 139 5 is_stmt 1
 140:src/syscall_c.cpp **** 
 141:src/syscall_c.cpp **** }
 655              		.loc 1 141 1 is_stmt 0
 656              	#NO_APP
 657 0230 1375F50F 		andi	a0,a0,0xff
 658 0234 03348100 		ld	s0,8(sp)
 659              		.cfi_restore 8
 660              		.cfi_def_cfa 2, 16
 661 0238 13010101 		addi	sp,sp,16
 662              		.cfi_def_cfa_offset 0
 663 023c 67800000 		jr	ra
 664              		.cfi_endproc
 665              	.LFE56:
 667              		.align	2
 668              		.globl	_Z4putcc
 670              	_Z4putcc:
 671              	.LFB57:
 142:src/syscall_c.cpp **** 
 143:src/syscall_c.cpp **** void putc(char c) {
 672              		.loc 1 143 19 is_stmt 1
 673              		.cfi_startproc
 674              	.LVL32:
 675 0240 130101FF 		addi	sp,sp,-16
 676              		.cfi_def_cfa_offset 16
 677 0244 23348100 		sd	s0,8(sp)
 678              		.cfi_offset 8, -8
 679 0248 13040101 		addi	s0,sp,16
 680              		.cfi_def_cfa 8, 0
 144:src/syscall_c.cpp **** 
 145:src/syscall_c.cpp ****     __asm__ volatile ("mv a1, %0" : : "r" (c));
GAS LISTING /tmp/ccPo9r7G.s 			page 15


 681              		.loc 1 145 5
 682              		.loc 1 145 47 is_stmt 0
 683              	#APP
 684              	# 145 "src/syscall_c.cpp" 1
 146              	    __asm__ volatile("li a0, 0x42");
 685              		mv a1, a0
 686              	# 0 "" 2
 687              		.loc 1 146 5 is_stmt 1
 688              		.loc 1 146 36 is_stmt 0
 689              	# 146 "src/syscall_c.cpp" 1
 147              	    __asm__ volatile ("ecall");
 690              		li a0, 0x42
 691              	# 0 "" 2
 692              		.loc 1 147 5 is_stmt 1
 693              		.loc 1 147 31 is_stmt 0
 694              	# 147 "src/syscall_c.cpp" 1
 148              	
 149:src/syscall_c.cpp **** }
 695              		ecall
 696              	# 0 "" 2
 697              		.loc 1 149 1
 698              	#NO_APP
 699 0258 03348100 		ld	s0,8(sp)
 700              		.cfi_restore 8
 701              		.cfi_def_cfa 2, 16
 702 025c 13010101 		addi	sp,sp,16
 703              		.cfi_def_cfa_offset 0
 704 0260 67800000 		jr	ra
 705              		.cfi_endproc
 706              	.LFE57:
 708              		.align	2
 709              		.globl	_Z10time_sleepm
 711              	_Z10time_sleepm:
 712              	.LFB58:
 150:src/syscall_c.cpp **** 
 151:src/syscall_c.cpp **** int time_sleep(time_t time) {
 713              		.loc 1 151 29 is_stmt 1
 714              		.cfi_startproc
 715              	.LVL33:
 716 0264 130101FF 		addi	sp,sp,-16
 717              		.cfi_def_cfa_offset 16
 718 0268 23348100 		sd	s0,8(sp)
 719              		.cfi_offset 8, -8
 720 026c 13040101 		addi	s0,sp,16
 721              		.cfi_def_cfa 8, 0
 152:src/syscall_c.cpp ****     return 0;
 722              		.loc 1 152 5
 153:src/syscall_c.cpp **** }
 723              		.loc 1 153 1 is_stmt 0
 724 0270 13050000 		li	a0,0
 725              	.LVL34:
 726 0274 03348100 		ld	s0,8(sp)
 727              		.cfi_restore 8
 728              		.cfi_def_cfa 2, 16
 729 0278 13010101 		addi	sp,sp,16
 730              		.cfi_def_cfa_offset 0
 731 027c 67800000 		jr	ra
GAS LISTING /tmp/ccPo9r7G.s 			page 16


 732              		.cfi_endproc
 733              	.LFE58:
 735              		.align	2
 736              		.globl	_Z13sem_timedwaitP13SyncSemaphorem
 738              	_Z13sem_timedwaitP13SyncSemaphorem:
 739              	.LFB59:
 154:src/syscall_c.cpp **** 
 155:src/syscall_c.cpp **** int sem_timedwait(sem_t id, time_t timeout) {
 740              		.loc 1 155 45 is_stmt 1
 741              		.cfi_startproc
 742              	.LVL35:
 743 0280 130101FF 		addi	sp,sp,-16
 744              		.cfi_def_cfa_offset 16
 745 0284 23348100 		sd	s0,8(sp)
 746              		.cfi_offset 8, -8
 747 0288 13040101 		addi	s0,sp,16
 748              		.cfi_def_cfa 8, 0
 156:src/syscall_c.cpp ****     return 0;
 749              		.loc 1 156 5
 157:src/syscall_c.cpp **** }
 750              		.loc 1 157 1 is_stmt 0
 751 028c 13050000 		li	a0,0
 752              	.LVL36:
 753 0290 03348100 		ld	s0,8(sp)
 754              		.cfi_restore 8
 755              		.cfi_def_cfa 2, 16
 756 0294 13010101 		addi	sp,sp,16
 757              		.cfi_def_cfa_offset 0
 758 0298 67800000 		jr	ra
 759              		.cfi_endproc
 760              	.LFE59:
 762              		.align	2
 763              		.globl	_Z4pairP3TCBS0_
 765              	_Z4pairP3TCBS0_:
 766              	.LFB60:
 158:src/syscall_c.cpp **** 
 159:src/syscall_c.cpp **** //mod
 160:src/syscall_c.cpp **** void pair(thread_t t1, thread_t t2){
 767              		.loc 1 160 36 is_stmt 1
 768              		.cfi_startproc
 769              	.LVL37:
 770 029c 130101FF 		addi	sp,sp,-16
 771              		.cfi_def_cfa_offset 16
 772 02a0 23348100 		sd	s0,8(sp)
 773              		.cfi_offset 8, -8
 774 02a4 13040101 		addi	s0,sp,16
 775              		.cfi_def_cfa 8, 0
 161:src/syscall_c.cpp ****     __asm__ volatile("mv a2, %0" : : "r"(t2));
 776              		.loc 1 161 5
 777              		.loc 1 161 46 is_stmt 0
 778              	#APP
 779              	# 161 "src/syscall_c.cpp" 1
 162              	    __asm__ volatile("mv a1, %0" : : "r"(t1));
 780              		mv a2, a1
 781              	# 0 "" 2
 782              		.loc 1 162 5 is_stmt 1
 783              		.loc 1 162 46 is_stmt 0
GAS LISTING /tmp/ccPo9r7G.s 			page 17


 784              	# 162 "src/syscall_c.cpp" 1
 163              	    __asm__ volatile("li a0, 0x50");
 785              		mv a1, a0
 786              	# 0 "" 2
 787              		.loc 1 163 5 is_stmt 1
 788              		.loc 1 163 36 is_stmt 0
 789              	# 163 "src/syscall_c.cpp" 1
 164              	    __asm__ volatile ("ecall");
 790              		li a0, 0x50
 791              	# 0 "" 2
 792              		.loc 1 164 5 is_stmt 1
 793              		.loc 1 164 31 is_stmt 0
 794              	# 164 "src/syscall_c.cpp" 1
 165              	
 166:src/syscall_c.cpp **** }
 795              		ecall
 796              	# 0 "" 2
 797              		.loc 1 166 1
 798              	#NO_APP
 799 02b8 03348100 		ld	s0,8(sp)
 800              		.cfi_restore 8
 801              		.cfi_def_cfa 2, 16
 802 02bc 13010101 		addi	sp,sp,16
 803              		.cfi_def_cfa_offset 0
 804 02c0 67800000 		jr	ra
 805              		.cfi_endproc
 806              	.LFE60:
 808              		.align	2
 809              		.globl	_Z11synchronizeP3TCB
 811              	_Z11synchronizeP3TCB:
 812              	.LFB61:
 167:src/syscall_c.cpp **** 
 168:src/syscall_c.cpp **** void synchronize(thread_t t){
 813              		.loc 1 168 29 is_stmt 1
 814              		.cfi_startproc
 815              	.LVL38:
 816 02c4 130101FF 		addi	sp,sp,-16
 817              		.cfi_def_cfa_offset 16
 818 02c8 23348100 		sd	s0,8(sp)
 819              		.cfi_offset 8, -8
 820 02cc 13040101 		addi	s0,sp,16
 821              		.cfi_def_cfa 8, 0
 169:src/syscall_c.cpp ****     __asm__ volatile("mv a1, %0" : : "r"(t));
 822              		.loc 1 169 5
 823              		.loc 1 169 45 is_stmt 0
 824              	#APP
 825              	# 169 "src/syscall_c.cpp" 1
 170              	    __asm__ volatile("li a0, 0x51");
 826              		mv a1, a0
 827              	# 0 "" 2
 828              		.loc 1 170 5 is_stmt 1
 829              		.loc 1 170 36 is_stmt 0
 830              	# 170 "src/syscall_c.cpp" 1
 171              	    __asm__ volatile ("ecall");
 831              		li a0, 0x51
 832              	# 0 "" 2
 833              		.loc 1 171 5 is_stmt 1
GAS LISTING /tmp/ccPo9r7G.s 			page 18


 834              		.loc 1 171 31 is_stmt 0
 835              	# 171 "src/syscall_c.cpp" 1
 172              	}
 836              		ecall
 837              	# 0 "" 2
 838              		.loc 1 172 1
 839              	#NO_APP
 840 02dc 03348100 		ld	s0,8(sp)
 841              		.cfi_restore 8
 842              		.cfi_def_cfa 2, 16
 843 02e0 13010101 		addi	sp,sp,16
 844              		.cfi_def_cfa_offset 0
 845 02e4 67800000 		jr	ra
 846              		.cfi_endproc
 847              	.LFE61:
 849              	.Letext0:
 850              		.file 2 "src/../h/../lib/hw.h"
 851              		.file 3 "src/../h/list.hpp"
 852              		.file 4 "src/../h/tcb.hpp"
 853              		.file 5 "src/../h/syncSemaphore.hpp"
 854              		.file 6 "src/../h/syscall_c.hpp"
GAS LISTING /tmp/ccPo9r7G.s 			page 19

